
rsa.elf:     file format elf32-littlenios2
rsa.elf
architecture: nios2, flags 0x00000112:
EXEC_P, HAS_SYMS, D_PAGED
start address 0x020001b8

Program Header:
    LOAD off    0x00001000 vaddr 0x02000000 paddr 0x02000000 align 2**12
         filesz 0x00000020 memsz 0x00000020 flags r-x
    LOAD off    0x00001020 vaddr 0x02000020 paddr 0x02000020 align 2**12
         filesz 0x00012d38 memsz 0x00012d38 flags r-x
    LOAD off    0x00013d58 vaddr 0x02012d58 paddr 0x020147dc align 2**12
         filesz 0x00001a84 memsz 0x00001a84 flags rw-
    LOAD off    0x00016260 vaddr 0x02016260 paddr 0x02016260 align 2**12
         filesz 0x00000000 memsz 0x000003ec flags rw-

Sections:
Idx Name          Size      VMA       LMA       File off  Algn
  0 .entry        00000020  02000000  02000000  00001000  2**5
                  CONTENTS, ALLOC, LOAD, READONLY, CODE
  1 .exceptions   00000198  02000020  02000020  00001020  2**2
                  CONTENTS, ALLOC, LOAD, READONLY, CODE
  2 .text         00012084  020001b8  020001b8  000011b8  2**2
                  CONTENTS, ALLOC, LOAD, READONLY, CODE
  3 .rodata       00000b1c  0201223c  0201223c  0001323c  2**2
                  CONTENTS, ALLOC, LOAD, READONLY, DATA
  4 .rwdata       00001a84  02012d58  020147dc  00013d58  2**2
                  CONTENTS, ALLOC, LOAD, DATA, SMALL_DATA
  5 .bss          000003ec  02016260  02016260  00016260  2**2
                  ALLOC, SMALL_DATA
  6 .comment      00000023  00000000  00000000  000157dc  2**0
                  CONTENTS, READONLY
  7 .debug_aranges 000010b8  00000000  00000000  00015800  2**3
                  CONTENTS, READONLY, DEBUGGING
  8 .debug_info   0002f7aa  00000000  00000000  000168b8  2**0
                  CONTENTS, READONLY, DEBUGGING
  9 .debug_abbrev 0000bf43  00000000  00000000  00046062  2**0
                  CONTENTS, READONLY, DEBUGGING
 10 .debug_line   0000db1a  00000000  00000000  00051fa5  2**0
                  CONTENTS, READONLY, DEBUGGING
 11 .debug_frame  00001e80  00000000  00000000  0005fac0  2**2
                  CONTENTS, READONLY, DEBUGGING
 12 .debug_str    000037a2  00000000  00000000  00061940  2**0
                  CONTENTS, READONLY, DEBUGGING
 13 .debug_loc    0001821f  00000000  00000000  000650e2  2**0
                  CONTENTS, READONLY, DEBUGGING
 14 .debug_alt_sim_info 00000010  00000000  00000000  0007d304  2**2
                  CONTENTS, READONLY, DEBUGGING
 15 .debug_ranges 00000de8  00000000  00000000  0007d318  2**3
                  CONTENTS, READONLY, DEBUGGING
 16 .thread_model 00000003  00000000  00000000  000817c1  2**0
                  CONTENTS, READONLY
 17 .cpu          0000000c  00000000  00000000  000817c4  2**0
                  CONTENTS, READONLY
 18 .qsys         00000001  00000000  00000000  000817d0  2**0
                  CONTENTS, READONLY
 19 .simulation_enabled 00000001  00000000  00000000  000817d1  2**0
                  CONTENTS, READONLY
 20 .sysid_hash   00000004  00000000  00000000  000817d2  2**0
                  CONTENTS, READONLY
 21 .sysid_base   00000004  00000000  00000000  000817d6  2**0
                  CONTENTS, READONLY
 22 .sysid_time   00000004  00000000  00000000  000817da  2**0
                  CONTENTS, READONLY
 23 .stderr_dev   0000000b  00000000  00000000  000817de  2**0
                  CONTENTS, READONLY
 24 .stdin_dev    0000000b  00000000  00000000  000817e9  2**0
                  CONTENTS, READONLY
 25 .stdout_dev   0000000b  00000000  00000000  000817f4  2**0
                  CONTENTS, READONLY
 26 .sopc_system_name 00000011  00000000  00000000  000817ff  2**0
                  CONTENTS, READONLY
 27 .quartus_project_dir 00000058  00000000  00000000  00081810  2**0
                  CONTENTS, READONLY
 28 .sopcinfo     00062416  00000000  00000000  00081868  2**0
                  CONTENTS, READONLY
SYMBOL TABLE:
02000000 l    d  .entry	00000000 .entry
02000020 l    d  .exceptions	00000000 .exceptions
020001b8 l    d  .text	00000000 .text
0201223c l    d  .rodata	00000000 .rodata
02012d58 l    d  .rwdata	00000000 .rwdata
02016260 l    d  .bss	00000000 .bss
00000000 l    d  .comment	00000000 .comment
00000000 l    d  .debug_aranges	00000000 .debug_aranges
00000000 l    d  .debug_info	00000000 .debug_info
00000000 l    d  .debug_abbrev	00000000 .debug_abbrev
00000000 l    d  .debug_line	00000000 .debug_line
00000000 l    d  .debug_frame	00000000 .debug_frame
00000000 l    d  .debug_str	00000000 .debug_str
00000000 l    d  .debug_loc	00000000 .debug_loc
00000000 l    d  .debug_alt_sim_info	00000000 .debug_alt_sim_info
00000000 l    d  .debug_ranges	00000000 .debug_ranges
00000000 l    df *ABS*	00000000 ../rsa_bsp//obj/HAL/src/crt0.o
020001f0 l       .text	00000000 alt_after_alt_main
00000000 l    df *ABS*	00000000 alt_exception_entry.o
02000094 l       .exceptions	00000000 alt_exception_unknown
00000000 l    df *ABS*	00000000 alt_irq_handler.c
00000000 l    df *ABS*	00000000 rsa_intonly.c
00000000 l    df *ABS*	00000000 lib2-divmod.c
02000f78 l     F .text	00000074 udivmodsi4
00000000 l    df *ABS*	00000000 lib2-mul.c
00000000 l    df *ABS*	00000000 printf.c
00000000 l    df *ABS*	00000000 puts.c
00000000 l    df *ABS*	00000000 scanf.c
00000000 l    df *ABS*	00000000 strlen.c
00000000 l    df *ABS*	00000000 vfprintf.c
020012c8 l     F .text	00000034 __sprint_r
02012776 l     O .rodata	00000010 blanks.3546
02012786 l     O .rodata	00000010 zeroes.3547
00000000 l    df *ABS*	00000000 vfscanf.c
0201279e l     O .rodata	00000022 basefix.3458
00000000 l    df *ABS*	00000000 wsetup.c
00000000 l    df *ABS*	00000000 ctype_.c
020128c1 l     O .rodata	00000180 _ctype_b
00000000 l    df *ABS*	00000000 dtoa.c
02004a98 l     F .text	0000023c quorem
00000000 l    df *ABS*	00000000 fflush.c
00000000 l    df *ABS*	00000000 findfp.c
02006508 l     F .text	00000008 __fp_lock
02006510 l     F .text	00000008 __fp_unlock
00000000 l    df *ABS*	00000000 fread.c
00000000 l    df *ABS*	00000000 mallocr.c
00000000 l    df *ABS*	00000000 fvwrite.c
00000000 l    df *ABS*	00000000 fwalk.c
00000000 l    df *ABS*	00000000 impure.c
02012d58 l     O .rwdata	00000400 impure_data
00000000 l    df *ABS*	00000000 iswspace.c
00000000 l    df *ABS*	00000000 locale.c
02012a68 l     O .rodata	00000030 lconv
00000000 l    df *ABS*	00000000 makebuf.c
00000000 l    df *ABS*	00000000 mallocr.c
00000000 l    df *ABS*	00000000 mbrtowc.c
00000000 l    df *ABS*	00000000 mbtowc_r.c
00000000 l    df *ABS*	00000000 memchr.c
00000000 l    df *ABS*	00000000 memcpy.c
00000000 l    df *ABS*	00000000 memmove.c
00000000 l    df *ABS*	00000000 memset.c
00000000 l    df *ABS*	00000000 mprec.c
02012bb0 l     O .rodata	0000000c p05.2466
00000000 l    df *ABS*	00000000 mallocr.c
00000000 l    df *ABS*	00000000 refill.c
02009ad4 l     F .text	0000001c lflush
00000000 l    df *ABS*	00000000 s_isinfd.c
00000000 l    df *ABS*	00000000 s_isnand.c
00000000 l    df *ABS*	00000000 sbrkr.c
00000000 l    df *ABS*	00000000 sccl.c
00000000 l    df *ABS*	00000000 sf_nan.c
00000000 l    df *ABS*	00000000 sprintf.c
00000000 l    df *ABS*	00000000 stdio.c
00000000 l    df *ABS*	00000000 strcmp.c
00000000 l    df *ABS*	00000000 strtod.c
0201356c l     O .rwdata	00000014 fpi.2046
02012bcc l     O .rodata	00000028 tinytens
02013580 l     O .rwdata	00000014 fpinan.2082
00000000 l    df *ABS*	00000000 strtol.c
00000000 l    df *ABS*	00000000 strtoll_r.c
00000000 l    df *ABS*	00000000 strtoul.c
00000000 l    df *ABS*	00000000 strtoull_r.c
00000000 l    df *ABS*	00000000 ungetc.c
00000000 l    df *ABS*	00000000 writer.c
00000000 l    df *ABS*	00000000 mallocr.c
00000000 l    df *ABS*	00000000 closer.c
00000000 l    df *ABS*	00000000 fclose.c
00000000 l    df *ABS*	00000000 fstatr.c
00000000 l    df *ABS*	00000000 gdtoa-gethex.c
0200c9ac l     F .text	00000110 rshift
00000000 l    df *ABS*	00000000 gdtoa-hexnan.c
00000000 l    df *ABS*	00000000 int_errno.c
00000000 l    df *ABS*	00000000 isattyr.c
00000000 l    df *ABS*	00000000 lseekr.c
00000000 l    df *ABS*	00000000 readr.c
00000000 l    df *ABS*	00000000 libgcc2.c
00000000 l    df *ABS*	00000000 libgcc2.c
00000000 l    df *ABS*	00000000 libgcc2.c
00000000 l    df *ABS*	00000000 libgcc2.c
00000000 l    df *ABS*	00000000 fp-bit.c
00000000 l    df *ABS*	00000000 fp-bit.c
00000000 l    df *ABS*	00000000 fp-bit.c
00000000 l    df *ABS*	00000000 fp-bit.c
0200e59c l     F .text	00000354 _fpadd_parts
00000000 l    df *ABS*	00000000 fp-bit.c
00000000 l    df *ABS*	00000000 fp-bit.c
00000000 l    df *ABS*	00000000 fp-bit.c
00000000 l    df *ABS*	00000000 fp-bit.c
00000000 l    df *ABS*	00000000 fp-bit.c
00000000 l    df *ABS*	00000000 fp-bit.c
00000000 l    df *ABS*	00000000 fp-bit.c
00000000 l    df *ABS*	00000000 fp-bit.c
00000000 l    df *ABS*	00000000 fp-bit.c
00000000 l    df *ABS*	00000000 fp-bit.c
00000000 l    df *ABS*	00000000 fp-bit.c
00000000 l    df *ABS*	00000000 fp-bit.c
00000000 l    df *ABS*	00000000 fp-bit.c
00000000 l    df *ABS*	00000000 libgcc2.c
00000000 l    df *ABS*	00000000 libgcc2.c
00000000 l    df *ABS*	00000000 fp-bit.c
00000000 l    df *ABS*	00000000 fp-bit.c
00000000 l    df *ABS*	00000000 fp-bit.c
00000000 l    df *ABS*	00000000 fp-bit.c
00000000 l    df *ABS*	00000000 fp-bit.c
00000000 l    df *ABS*	00000000 fp-bit.c
00000000 l    df *ABS*	00000000 libgcc2.c
00000000 l    df *ABS*	00000000 libgcc2.c
00000000 l    df *ABS*	00000000 fp-bit.c
00000000 l    df *ABS*	00000000 alt_close.c
0200fb90 l     F .text	00000050 alt_get_errno
00000000 l    df *ABS*	00000000 alt_dev.c
0200fcac l     F .text	0000002c alt_dev_null_write
00000000 l    df *ABS*	00000000 alt_errno.c
00000000 l    df *ABS*	00000000 alt_fstat.c
0200fcd8 l     F .text	00000050 alt_get_errno
00000000 l    df *ABS*	00000000 alt_isatty.c
0200fdd8 l     F .text	00000050 alt_get_errno
00000000 l    df *ABS*	00000000 alt_load.c
0200fecc l     F .text	0000006c alt_load_section
00000000 l    df *ABS*	00000000 alt_lseek.c
0200ffb8 l     F .text	00000050 alt_get_errno
00000000 l    df *ABS*	00000000 alt_main.c
00000000 l    df *ABS*	00000000 alt_malloc_lock.c
00000000 l    df *ABS*	00000000 alt_read.c
02010194 l     F .text	00000050 alt_get_errno
00000000 l    df *ABS*	00000000 alt_release_fd.c
00000000 l    df *ABS*	00000000 alt_sbrk.c
020147cc l     O .rwdata	00000004 heap_end
00000000 l    df *ABS*	00000000 alt_write.c
02010408 l     F .text	00000050 alt_get_errno
00000000 l    df *ABS*	00000000 alt_sys_init.c
02010548 l     F .text	00000038 alt_dev_reg
0201373c l     O .rwdata	00001060 jtag_uart_0
00000000 l    df *ABS*	00000000 altera_avalon_jtag_uart_fd.c
00000000 l    df *ABS*	00000000 altera_avalon_jtag_uart_init.c
02010820 l     F .text	00000204 altera_avalon_jtag_uart_irq
02010a24 l     F .text	000000a4 altera_avalon_jtag_uart_timeout
00000000 l    df *ABS*	00000000 altera_avalon_jtag_uart_ioctl.c
00000000 l    df *ABS*	00000000 altera_avalon_jtag_uart_read.c
00000000 l    df *ABS*	00000000 altera_avalon_jtag_uart_write.c
00000000 l    df *ABS*	00000000 alt_alarm_start.c
00000000 l    df *ABS*	00000000 alt_dcache_flush_all.c
00000000 l    df *ABS*	00000000 alt_dev_llist_insert.c
020111b8 l     F .text	00000050 alt_get_errno
00000000 l    df *ABS*	00000000 alt_do_ctors.c
00000000 l    df *ABS*	00000000 alt_do_dtors.c
00000000 l    df *ABS*	00000000 alt_icache_flush_all.c
00000000 l    df *ABS*	00000000 alt_iic.c
00000000 l    df *ABS*	00000000 alt_iic_isr_register.c
00000000 l    df *ABS*	00000000 alt_io_redirect.c
02011644 l     F .text	000000e0 alt_open_fd
00000000 l    df *ABS*	00000000 alt_irq_vars.c
00000000 l    df *ABS*	00000000 alt_open.c
0201179c l     F .text	00000050 alt_get_errno
020117ec l     F .text	000000f0 alt_file_locked
00000000 l    df *ABS*	00000000 alt_tick.c
00000000 l    df *ABS*	00000000 altera_nios2_qsys_irq.c
00000000 l    df *ABS*	00000000 alt_find_dev.c
00000000 l    df *ABS*	00000000 alt_find_file.c
00000000 l    df *ABS*	00000000 alt_get_fd.c
00000000 l    df *ABS*	00000000 atexit.c
00000000 l    df *ABS*	00000000 exit.c
00000000 l    df *ABS*	00000000 memcmp.c
00000000 l    df *ABS*	00000000 __atexit.c
00000000 l    df *ABS*	00000000 __call_atexit.c
00000000 l    df *ABS*	00000000 alt_exit.c
00000000 l    df *ABS*	00000000 
02009364 g     F .text	00000074 _mprec_log10
02009454 g     F .text	00000084 __any_on
0200d550 g     F .text	00000064 _isatty_r
02012a98 g     O .rodata	00000028 __mprec_tinytens
020100dc g     F .text	00000078 alt_main
0200fa20 g     F .text	00000044 __ashldi3
02001138 g     F .text	00000084 _puts_r
020163bc g     O .bss	00000100 alt_irq
0200d5b4 g     F .text	0000006c _lseek_r
02000dfc g     F .text	0000008c decrypt
020147dc g       *ABS*	00000000 __flash_rwdata_start
0200ee3c g     F .text	0000005c __eqdf2
0201664c g       *ABS*	00000000 __alt_heap_start
020010fc g     F .text	0000003c printf
0200a010 g     F .text	0000005c __sseek
020065ac g     F .text	0000010c __sinit
020074f8 g     F .text	0000009c _setlocale_r
02006524 g     F .text	00000078 __sfmoreglue
0200c63c g     F .text	0000001c ungetc
02010174 g     F .text	00000020 __malloc_unlock
0200a118 g     F .text	00001548 _strtod_r
02008220 g     F .text	0000018c memmove
0200659c g     F .text	00000010 _cleanup
02008488 g     F .text	000000a8 _Balloc
0200eef4 g     F .text	00000064 __gtdf2
00000000  w      *UND*	00000000 __errno
02000000 g     F .entry	0000000c __reset
02000020 g       *ABS*	00000000 __flash_exceptions_start
0200c944 g     F .text	00000068 _fstat_r
02016278 g     O .bss	00000004 errno
02004890 g     F .text	00000024 __svfscanf
0200f5b8 g     F .text	0000002c __make_fp
02016280 g     O .bss	00000004 alt_argv
0201c79c g       *ABS*	00000000 _gp
020135bc g     O .rwdata	00000180 alt_fd_list
02011bf0 g     F .text	00000090 alt_find_dev
020080e0 g     F .text	00000140 memcpy
0200d2c4 g     F .text	0000028c __hexnan
02006518 g     F .text	0000000c _cleanup_r
0200f074 g     F .text	000000d4 __floatsidf
02011724 g     F .text	00000078 alt_io_redirect
0200efbc g     F .text	0000005c __ltdf2
0201223c g       *ABS*	00000000 __DTOR_END__
020011bc g     F .text	00000014 puts
02007f64 g     F .text	00000040 mbrtowc
02004844 g     F .text	0000004c _vfscanf_r
020092c0 g     F .text	000000a4 __ratio
02010c24 g     F .text	00000218 altera_avalon_jtag_uart_read
00000000  w      *UND*	00000000 malloc
020010d0 g     F .text	0000002c _printf_r
00000000 g       *ABS*	00000000 __alt_mem_onchip_memory2_0
02001098 g     F .text	00000008 __udivsi3
0200fe28 g     F .text	000000a4 isatty
020074c0 g     F .text	00000038 iswspace
02012ae8 g     O .rodata	000000c8 __mprec_tens
02007594 g     F .text	0000000c __locale_charset
0200d79c g     F .text	00000084 __fixunsdfsi
02016274 g     O .bss	00000004 __malloc_top_pad
0200bff8 g     F .text	00000024 strtoul
020147a8 g     O .rwdata	00000004 __mb_cur_max
020075a0 g     F .text	0000000c _localeconv_r
0200c01c g     F .text	00000394 _strtoull_r
020088b8 g     F .text	0000003c __i2b
02006e7c g     F .text	000004e4 __sfvwrite_r
02000f00 g     F .text	00000078 e_checker
02009d40 g     F .text	00000064 _sbrk_r
0200d620 g     F .text	0000006c _read_r
02013158 g     O .rwdata	0000000c __lc_ctype
020147c4 g     O .rwdata	00000004 alt_max_fd
0200f808 g     F .text	00000104 __unpack_d
0200c7f4 g     F .text	0000013c _fclose_r
020064d8 g     F .text	00000030 fflush
02016270 g     O .bss	00000004 __malloc_max_sbrked_mem
0200e8f0 g     F .text	00000054 __adddf3
0200e498 g     F .text	00000054 __nesf2
02009034 g     F .text	00000148 __b2d
0200de70 g     F .text	00000628 __umoddi3
02010008 g     F .text	000000d4 lseek
020147a0 g     O .rwdata	00000004 _global_impure_ptr
020094d8 g     F .text	000005fc _realloc_r
0201664c g       *ABS*	00000000 __bss_end
02011554 g     F .text	000000f0 alt_iic_isr_register
02011acc g     F .text	00000104 alt_tick
020162bc g     O .bss	00000100 __hexdig
0200d820 g     F .text	00000650 __udivdi3
02012ac0 g     O .rodata	00000028 __mprec_bigtens
0200869c g     F .text	00000104 __s2b
0200f26c g     F .text	0000011c __floatunsidf
02008dd4 g     F .text	00000058 __mcmp
0201479c g     O .rwdata	00000004 __ctype_ptr
020067c4 g     F .text	00000018 __fp_lock_all
02011508 g     F .text	0000004c alt_ic_irq_enabled
02011a34 g     F .text	00000098 alt_alarm_stop
0200ba00 g     F .text	00000024 strtol
02016288 g     O .bss	00000004 alt_irq_active
020000ec g     F .exceptions	000000cc alt_irq_handler
02013594 g     O .rwdata	00000028 alt_dev_null
0200f434 g     F .text	000000c8 __unpack_f
0201119c g     F .text	0000001c alt_dcache_flush_all
020087a0 g     F .text	00000068 __hi0bits
0200f148 g     F .text	000000c4 __fixdfsi
0200b660 g     F .text	0000001c strtod
020147dc g       *ABS*	00000000 __ram_rwdata_end
020147bc g     O .rwdata	00000008 alt_dev_list
02010458 g     F .text	000000f0 write
0200e4ec g     F .text	0000005c __gtsf2
02012d58 g       *ABS*	00000000 __ram_rodata_end
0200fd28 g     F .text	000000b0 fstat
0200f9dc g     F .text	00000044 __lshrdi3
0200f018 g     F .text	0000005c __ledf2
02008b4c g     F .text	0000012c __pow5mult
02016268 g     O .bss	00000004 __nlocale_changed
020010a0 g     F .text	00000008 __umodsi3
02001210 g     F .text	0000002c _scanf_r
0201664c g       *ABS*	00000000 end
0200fa64 g     F .text	0000012c __pack_f
02010760 g     F .text	000000c0 altera_avalon_jtag_uart_init
020002a8 g     F .text	00000804 hardware_encrypt
0201223c g       *ABS*	00000000 __CTOR_LIST__
03000000 g       *ABS*	00000000 __alt_stack_pointer
0200f388 g     F .text	000000ac __clzsi2
02010e3c g     F .text	00000220 altera_avalon_jtag_uart_write
020067b4 g     F .text	00000004 __sfp_lock_acquire
02007fe8 g     F .text	000000f8 memchr
020012fc g     F .text	00001e7c ___vfprintf_internal_r
02009e70 g     F .text	00000058 _sprintf_r
02006bac g     F .text	000002d0 _free_r
02012060 g     F .text	000001a0 __call_exitprocs
02016264 g     O .bss	00000004 __mlocale_changed
020147ac g     O .rwdata	00000004 __malloc_sbrk_base
020001b8 g     F .text	0000003c _start
0201628c g     O .bss	00000004 _alt_tick_rate
0200ba24 g     F .text	00000330 _strtoll_r
02008c78 g     F .text	0000015c __lshift
02016290 g     O .bss	00000004 _alt_nticks
020101e4 g     F .text	000000f4 read
020105b4 g     F .text	00000048 alt_sys_init
02011f30 g     F .text	00000130 __register_exitproc
020088f4 g     F .text	00000258 __multiply
02010ac8 g     F .text	00000068 altera_avalon_jtag_uart_close
020010a8 g     F .text	00000028 __mulsi3
02012d58 g       *ABS*	00000000 __ram_rwdata_start
0201223c g       *ABS*	00000000 __ram_rodata_start
02016294 g     O .bss	00000028 __malloc_current_mallinfo
0200917c g     F .text	00000144 __d2b
020105fc g     F .text	00000060 altera_avalon_jtag_uart_read_fd
0200bd54 g     F .text	000002a4 _strtoul_r
02011d94 g     F .text	000000d4 alt_get_fd
0200f90c g     F .text	000000d0 __fpcmp_parts_d
0200c790 g     F .text	00000064 _close_r
02011eb4 g     F .text	0000007c memcmp
020106bc g     F .text	00000050 altera_avalon_jtag_uart_close_fd
0201664c g       *ABS*	00000000 __alt_stack_base
0201070c g     F .text	00000054 altera_avalon_jtag_uart_ioctl_fd
02004924 g     F .text	00000174 __swsetup_r
02000d70 g     F .text	0000008c encrypt
0200ec88 g     F .text	000001b4 __divdf3
020066b8 g     F .text	000000fc __sfp
020093d8 g     F .text	0000007c __copybits
02013164 g     O .rwdata	00000408 __malloc_av_
020067c0 g     F .text	00000004 __sinit_lock_release
0200e9a4 g     F .text	000002e4 __muldf3
02009f34 g     F .text	00000054 __sread
02006a30 g     F .text	00000040 fread
02011c80 g     F .text	00000114 alt_find_file
02011208 g     F .text	000000a0 alt_dev_llist_insert
02010154 g     F .text	00000020 __malloc_lock
02010358 g     F .text	000000b0 sbrk
020062f0 g     F .text	000001e8 _fflush_r
0200c6c4 g     F .text	000000cc _calloc_r
02016260 g       *ABS*	00000000 __bss_start
020083ac g     F .text	000000dc memset
020001f4 g     F .text	000000b4 main
02016284 g     O .bss	00000004 alt_envp
0201626c g     O .bss	00000004 __malloc_max_total_mem
0201065c g     F .text	00000060 altera_avalon_jtag_uart_write_fd
0200e548 g     F .text	00000054 __ltsf2
020067f4 g     F .text	0000023c _fread_r
0200a06c g     F .text	00000008 __sclose
03000000 g       *ABS*	00000000 __alt_heap_limit
0200c930 g     F .text	00000014 fclose
0200b79c g     F .text	00000264 _strtol_r
0200f20c g     F .text	00000060 __truncdfsf2
020164bc g     O .bss	00000190 _atexit0
02004cd4 g     F .text	0000161c _dtoa_r
0200777c g     F .text	00000784 _malloc_r
020147c8 g     O .rwdata	00000004 alt_errno
0200c3b0 g     F .text	000000f0 __submore
02007360 g     F .text	000000a8 _fwalk
02007fa4 g     F .text	00000044 _mbtowc_r
02000fec g     F .text	00000050 __divsi3
02012c10 g     O .rodata	00000014 __thenan_df
02006a70 g     F .text	0000013c _malloc_trim_r
0201223c g       *ABS*	00000000 __CTOR_END__
0200a074 g     F .text	000000a4 strcmp
0201223c g       *ABS*	00000000 __flash_rodata_start
0201223c g       *ABS*	00000000 __DTOR_LIST__
0200ee98 g     F .text	0000005c __nedf2
02010580 g     F .text	00000034 alt_irq_init
020102d8 g     F .text	00000080 alt_release_fd
02009ec8 g     F .text	0000006c sprintf
02012c24 g     O .rodata	00000100 __clz_tab
02016260 g     O .bss	00000004 _PathLocale
0200b67c g     F .text	00000120 strtof
02011e68 g     F .text	00000014 atexit
0200c658 g     F .text	0000006c _write_r
020075ac g     F .text	0000001c setlocale
020011d0 g     F .text	00000040 scanf
02009e68 g     F .text	00000008 nanf
020147a4 g     O .rwdata	00000004 _impure_ptr
0201627c g     O .bss	00000004 alt_argc
02007f00 g     F .text	00000064 _mbrtowc_r
02011304 g     F .text	0000005c _do_dtors
02009af0 g     F .text	000001ec __srefill_r
02000020 g       .exceptions	00000000 alt_irq_entry
02008fd4 g     F .text	00000060 __ulp
02009cdc g     F .text	00000038 __isinfd
020067dc g     F .text	00000018 __fp_unlock_all
020147b4 g     O .rwdata	00000008 alt_fs_list
02000020 g       *ABS*	00000000 __ram_exceptions_start
020075c8 g     F .text	0000000c localeconv
0201137c g     F .text	00000050 alt_ic_isr_register
0200cabc g     F .text	00000090 __hexdig_init
020147dc g       *ABS*	00000000 _edata
0201664c g       *ABS*	00000000 _end
020001b8 g       *ABS*	00000000 __ram_exceptions_end
020048b4 g     F .text	00000070 vfscanf
02010b30 g     F .text	000000f4 altera_avalon_jtag_uart_ioctl
02011468 g     F .text	000000a0 alt_ic_irq_disable
02009f88 g     F .text	00000088 __swrite
020147b0 g     O .rwdata	00000004 __malloc_trim_threshold
02011bd0 g     F .text	00000020 altera_nios2_qsys_irq_init
02011e7c g     F .text	00000038 exit
02007408 g     F .text	000000b8 _fwalk_reent
02008e2c g     F .text	000001a8 __mdiff
0200103c g     F .text	0000005c __modsi3
03000000 g       *ABS*	00000000 __alt_data_end
02000020 g     F .exceptions	00000000 alt_exception
020067b8 g     F .text	00000004 __sfp_lock_release
02000000 g       *ABS*	00000000 __alt_mem_sdram
02000aac g     F .text	000002c4 software_encrypt
02009da4 g     F .text	000000c4 __sccl
02000e88 g     F .text	00000078 prime_checker
020127c0 g     O .rodata	00000101 _ctype_
0200f4fc g     F .text	000000bc __fpcmp_parts_f
02012200 g     F .text	0000003c _exit
02009d14 g     F .text	0000002c __isnand
0201105c g     F .text	00000140 alt_alarm_start
0200d68c g     F .text	00000110 __muldi3
020075d4 g     F .text	000001a8 __smakebuf_r
0200123c g     F .text	0000008c strlen
020118dc g     F .text	00000158 open
0200ef58 g     F .text	00000064 __gedf2
0200cb4c g     F .text	00000778 __gethex
02011360 g     F .text	0000001c alt_icache_flush_all
020147d0 g     O .rwdata	00000004 alt_priority_mask
020113cc g     F .text	0000009c alt_ic_irq_enable
02003178 g     F .text	00000024 __vfprintf_internal
0200e944 g     F .text	00000060 __subdf3
02008808 g     F .text	000000b0 __lo0bits
0200319c g     F .text	000016a8 __svfscanf_r
020147d4 g     O .rwdata	00000008 alt_alarm_list
0200c4a0 g     F .text	0000019c _ungetc_r
020112a8 g     F .text	0000005c _do_ctors
0200fbe0 g     F .text	000000cc close
0200ff38 g     F .text	00000080 alt_load
0200f5e4 g     F .text	00000224 __pack_d
00000000  w      *UND*	00000000 free
020067bc g     F .text	00000004 __sinit_lock_acquire
02008558 g     F .text	00000144 __multadd
02008530 g     F .text	00000028 _Bfree



Disassembly of section .entry:

02000000 <__reset>:
 * Jump to the _start entry point in the .text section if reset code
 * is allowed or if optimizing for RTL simulation.
 */
#if defined(ALT_ALLOW_CODE_AT_RESET) || defined(ALT_SIM_OPTIMIZE)
    /* Jump to the _start entry point in the .text section. */
    movhi r1, %hi(_start)
 2000000:	00408034 	movhi	at,512
    ori r1, r1, %lo(_start)
 2000004:	08406e14 	ori	at,at,440
    jmp r1
 2000008:	0800683a 	jmp	at
	...

Disassembly of section .exceptions:

02000020 <alt_exception>:

#else /* ALT_EXCEPTION_STACK disabled */
        /* 
         * Reserve space on normal stack for registers about to be pushed.
         */
        addi  sp, sp, -76
 2000020:	deffed04 	addi	sp,sp,-76
         * documentation for details).
         *
         * Leave a gap in the stack frame at 4(sp) for the muldiv handler to
         * store zero into.
         */
        stw   ra,  0(sp)
 2000024:	dfc00015 	stw	ra,0(sp)
        stw   r1,   8(sp)
 2000028:	d8400215 	stw	at,8(sp)
        stw   r2,  12(sp)
 200002c:	d8800315 	stw	r2,12(sp)
        stw   r3,  16(sp)
 2000030:	d8c00415 	stw	r3,16(sp)
        stw   r4,  20(sp)
 2000034:	d9000515 	stw	r4,20(sp)
        stw   r5,  24(sp)
 2000038:	d9400615 	stw	r5,24(sp)
        stw   r6,  28(sp)
 200003c:	d9800715 	stw	r6,28(sp)
        stw   r7,  32(sp)
 2000040:	d9c00815 	stw	r7,32(sp)
        rdctl r5, estatus   /* Read early to avoid usage stall */
 2000044:	000b307a 	rdctl	r5,estatus
        stw   r8,  36(sp)
 2000048:	da000915 	stw	r8,36(sp)
        stw   r9,  40(sp)
 200004c:	da400a15 	stw	r9,40(sp)
        stw   r10, 44(sp)
 2000050:	da800b15 	stw	r10,44(sp)
        stw   r11, 48(sp)
 2000054:	dac00c15 	stw	r11,48(sp)
        stw   r12, 52(sp)
 2000058:	db000d15 	stw	r12,52(sp)
        stw   r13, 56(sp)
 200005c:	db400e15 	stw	r13,56(sp)
        stw   r14, 60(sp)
 2000060:	db800f15 	stw	r14,60(sp)
        stw   r15, 64(sp)
 2000064:	dbc01015 	stw	r15,64(sp)
        /*
         * ea-4 contains the address of the instruction being executed
         * when the exception occured. For interrupt exceptions, we will
         * will be re-issue the isntruction. Store it in 72(sp)
         */
        stw   r5,  68(sp)  /* estatus */
 2000068:	d9401115 	stw	r5,68(sp)
        addi  r15, ea, -4  /* instruction that caused exception */
 200006c:	ebffff04 	addi	r15,ea,-4
        stw   r15,  72(sp)
 2000070:	dbc01215 	stw	r15,72(sp)
#else
        /*
         * Test to see if the exception was a software exception or caused 
         * by an external interrupt, and vector accordingly.
         */
        rdctl r4, ipending
 2000074:	0009313a 	rdctl	r4,ipending
        andi  r2, r5, 1
 2000078:	2880004c 	andi	r2,r5,1
        beq   r2, zero, .Lnot_irq
 200007c:	10000326 	beq	r2,zero,200008c <alt_exception+0x6c>
        beq   r4, zero, .Lnot_irq
 2000080:	20000226 	beq	r4,zero,200008c <alt_exception+0x6c>
        /*
         * Now that all necessary registers have been preserved, call 
         * alt_irq_handler() to process the interrupts.
         */

        call alt_irq_handler
 2000084:	20000ec0 	call	20000ec <alt_irq_handler>

        .section .exceptions.irqreturn, "xa"

        br    .Lexception_exit
 2000088:	00000306 	br	2000098 <alt_exception_unknown+0x4>
         * upon completion, so we write ea (address of instruction *after*
         * the one where the exception occured) into 72(sp). The actual
         * instruction that caused the exception is written in r2, which these
         * handlers will utilize.
         */
        stw   ea,  72(sp)  /* Don't re-issue */
 200008c:	df401215 	stw	ea,72(sp)
        ldw   r2, -4(ea)   /* Instruction that caused exception */
 2000090:	e8bfff17 	ldw	r2,-4(ea)

02000094 <alt_exception_unknown>:
#ifdef NIOS2_HAS_DEBUG_STUB
       /*
        *  Either tell the user now (if there is a debugger attached) or go into
        *  the debug monitor which will loop until a debugger is attached.
        */
        break
 2000094:	003da03a 	break	0
        /* 
         * Restore the saved registers, so that all general purpose registers 
         * have been restored to their state at the time the interrupt occured.
         */

        ldw   r5,  68(sp)
 2000098:	d9401117 	ldw	r5,68(sp)
        ldw   ea,  72(sp)  /* This becomes the PC once eret is executed */
 200009c:	df401217 	ldw	ea,72(sp)
        ldw   ra,   0(sp)
 20000a0:	dfc00017 	ldw	ra,0(sp)

        wrctl estatus, r5
 20000a4:	2801707a 	wrctl	estatus,r5

        ldw   r1,   8(sp)
 20000a8:	d8400217 	ldw	at,8(sp)
        ldw   r2,  12(sp)
 20000ac:	d8800317 	ldw	r2,12(sp)
        ldw   r3,  16(sp)
 20000b0:	d8c00417 	ldw	r3,16(sp)
        ldw   r4,  20(sp)
 20000b4:	d9000517 	ldw	r4,20(sp)
        ldw   r5,  24(sp)
 20000b8:	d9400617 	ldw	r5,24(sp)
        ldw   r6,  28(sp)
 20000bc:	d9800717 	ldw	r6,28(sp)
        ldw   r7,  32(sp)
 20000c0:	d9c00817 	ldw	r7,32(sp)

#if defined(ALT_EXCEPTION_STACK) && defined(ALT_STACK_CHECK)
        ldw   et, %gprel(alt_exception_old_stack_limit)(gp)
#endif

        ldw   r8,  36(sp)
 20000c4:	da000917 	ldw	r8,36(sp)
        ldw   r9,  40(sp)
 20000c8:	da400a17 	ldw	r9,40(sp)
        ldw   r10, 44(sp)
 20000cc:	da800b17 	ldw	r10,44(sp)
        ldw   r11, 48(sp)
 20000d0:	dac00c17 	ldw	r11,48(sp)
        ldw   r12, 52(sp)
 20000d4:	db000d17 	ldw	r12,52(sp)
        ldw   r13, 56(sp)
 20000d8:	db400e17 	ldw	r13,56(sp)
        ldw   r14, 60(sp)
 20000dc:	db800f17 	ldw	r14,60(sp)
        ldw   r15, 64(sp)
 20000e0:	dbc01017 	ldw	r15,64(sp)
        stw   et, %gprel(alt_stack_limit_value)(gp)
        stw   zero, %gprel(alt_exception_old_stack_limit)(gp)
#endif /* ALT_STACK_CHECK */
        ldw   sp,  76(sp)
#else /* ALT_EXCEPTION_STACK disabled */
        addi  sp, sp, 76
 20000e4:	dec01304 	addi	sp,sp,76

        /*
         * Return to the interrupted instruction.
         */

        eret
 20000e8:	ef80083a 	eret

020000ec <alt_irq_handler>:
 * instruction is present if the macro ALT_CI_INTERRUPT_VECTOR defined.
 */

void alt_irq_handler (void) __attribute__ ((section (".exceptions")));
void alt_irq_handler (void)
{
 20000ec:	defff904 	addi	sp,sp,-28
 20000f0:	dfc00615 	stw	ra,24(sp)
 20000f4:	df000515 	stw	fp,20(sp)
 20000f8:	df000504 	addi	fp,sp,20
  
  /*
   * Notify the operating system that we are at interrupt level.
   */ 
  
  ALT_OS_INT_ENTER();
 20000fc:	0001883a 	nop
#ifndef NIOS2_EIC_PRESENT
static ALT_INLINE alt_u32 ALT_ALWAYS_INLINE alt_irq_pending (void)
{
  alt_u32 active;

  NIOS2_READ_IPENDING (active);
 2000100:	0005313a 	rdctl	r2,ipending
 2000104:	e0bffe15 	stw	r2,-8(fp)

  return active;
 2000108:	e0bffe17 	ldw	r2,-8(fp)
   * Consider the case where the high priority interupt is asserted during
   * the interrupt entry sequence for a lower priority interrupt to see why
   * this is the case.
   */

  active = alt_irq_pending ();
 200010c:	e0bffb15 	stw	r2,-20(fp)

  do
  {
    i = 0;
 2000110:	e03ffd15 	stw	zero,-12(fp)
    mask = 1;
 2000114:	00800044 	movi	r2,1
 2000118:	e0bffc15 	stw	r2,-16(fp)
     * called to clear the interrupt condition.
     */

    do
    {
      if (active & mask)
 200011c:	e0fffb17 	ldw	r3,-20(fp)
 2000120:	e0bffc17 	ldw	r2,-16(fp)
 2000124:	1884703a 	and	r2,r3,r2
 2000128:	10001726 	beq	r2,zero,2000188 <alt_irq_handler+0x9c>
      { 
#ifdef ALT_ENHANCED_INTERRUPT_API_PRESENT
        alt_irq[i].handler(alt_irq[i].context); 
 200012c:	00c08074 	movhi	r3,513
 2000130:	18d8ef04 	addi	r3,r3,25532
 2000134:	e0bffd17 	ldw	r2,-12(fp)
 2000138:	100490fa 	slli	r2,r2,3
 200013c:	1885883a 	add	r2,r3,r2
 2000140:	10c00017 	ldw	r3,0(r2)
 2000144:	01008074 	movhi	r4,513
 2000148:	2118ef04 	addi	r4,r4,25532
 200014c:	e0bffd17 	ldw	r2,-12(fp)
 2000150:	100490fa 	slli	r2,r2,3
 2000154:	2085883a 	add	r2,r4,r2
 2000158:	10800104 	addi	r2,r2,4
 200015c:	10800017 	ldw	r2,0(r2)
 2000160:	1009883a 	mov	r4,r2
 2000164:	183ee83a 	callr	r3
#else
        alt_irq[i].handler(alt_irq[i].context, i); 
#endif
        break;
 2000168:	0001883a 	nop
#ifndef NIOS2_EIC_PRESENT
static ALT_INLINE alt_u32 ALT_ALWAYS_INLINE alt_irq_pending (void)
{
  alt_u32 active;

  NIOS2_READ_IPENDING (active);
 200016c:	0005313a 	rdctl	r2,ipending
 2000170:	e0bfff15 	stw	r2,-4(fp)

  return active;
 2000174:	e0bfff17 	ldw	r2,-4(fp)
      mask <<= 1;
      i++;

    } while (1);

    active = alt_irq_pending ();
 2000178:	e0bffb15 	stw	r2,-20(fp)
    
  } while (active);
 200017c:	e0bffb17 	ldw	r2,-20(fp)
 2000180:	103fe31e 	bne	r2,zero,2000110 <__alt_data_end+0xff000110>

  /*
   * Notify the operating system that interrupt processing is complete.
   */ 

  ALT_OS_INT_EXIT();
 2000184:	00000706 	br	20001a4 <alt_irq_handler+0xb8>
#else
        alt_irq[i].handler(alt_irq[i].context, i); 
#endif
        break;
      }
      mask <<= 1;
 2000188:	e0bffc17 	ldw	r2,-16(fp)
 200018c:	1085883a 	add	r2,r2,r2
 2000190:	e0bffc15 	stw	r2,-16(fp)
      i++;
 2000194:	e0bffd17 	ldw	r2,-12(fp)
 2000198:	10800044 	addi	r2,r2,1
 200019c:	e0bffd15 	stw	r2,-12(fp)

    } while (1);
 20001a0:	003fde06 	br	200011c <__alt_data_end+0xff00011c>
  /*
   * Notify the operating system that interrupt processing is complete.
   */ 

  ALT_OS_INT_EXIT();
}
 20001a4:	e037883a 	mov	sp,fp
 20001a8:	dfc00117 	ldw	ra,4(sp)
 20001ac:	df000017 	ldw	fp,0(sp)
 20001b0:	dec00204 	addi	sp,sp,8
 20001b4:	f800283a 	ret

Disassembly of section .text:

020001b8 <_start>:

    /*
     * Now that the caches are initialized, set up the stack pointer and global pointer.
     * The values provided by the linker are assumed to be correctly aligned.
     */
    movhi sp, %hi(__alt_stack_pointer)
 20001b8:	06c0c034 	movhi	sp,768
    ori sp, sp, %lo(__alt_stack_pointer)
 20001bc:	dec00014 	ori	sp,sp,0
    movhi gp, %hi(_gp)
 20001c0:	06808074 	movhi	gp,513
    ori gp, gp, %lo(_gp)
 20001c4:	d6b1e714 	ori	gp,gp,51100
 */
#ifndef ALT_SIM_OPTIMIZE
    /* Log that the BSS is about to be cleared. */
    ALT_LOG_PUTS(alt_log_msg_bss)

    movhi r2, %hi(__bss_start)
 20001c8:	00808074 	movhi	r2,513
    ori r2, r2, %lo(__bss_start)
 20001cc:	10989814 	ori	r2,r2,25184

    movhi r3, %hi(__bss_end)
 20001d0:	00c08074 	movhi	r3,513
    ori r3, r3, %lo(__bss_end)
 20001d4:	18d99314 	ori	r3,r3,26188

    beq r2, r3, 1f
 20001d8:	10c00326 	beq	r2,r3,20001e8 <_start+0x30>

0:
    stw zero, (r2)
 20001dc:	10000015 	stw	zero,0(r2)
    addi r2, r2, 4
 20001e0:	10800104 	addi	r2,r2,4
    bltu r2, r3, 0b
 20001e4:	10fffd36 	bltu	r2,r3,20001dc <__alt_data_end+0xff0001dc>
     * section aren't defined until alt_load() has been called).
     */
    mov   et, zero
#endif

    call alt_load
 20001e8:	200ff380 	call	200ff38 <alt_load>

    /* Log that alt_main is about to be called. */
    ALT_LOG_PUTS(alt_log_msg_alt_main)

    /* Call the C entry point. It should never return. */
    call alt_main
 20001ec:	20100dc0 	call	20100dc <alt_main>

020001f0 <alt_after_alt_main>:

    /* Wait in infinite loop in case alt_main does return. */
alt_after_alt_main:
    br alt_after_alt_main
 20001f0:	003fff06 	br	20001f0 <__alt_data_end+0xff0001f0>

020001f4 <main>:
#define to_hw_port (volatile int*) 0x00000050 // actual address here
#define to_hw_sig (volatile int*) 0x00000040 // actual address here
#define to_sw_port (int*) 0x00000030 // actual address here
#define to_sw_sig (int*) 0x00000020 // actual address here

int main(void){
 20001f4:	defffd04 	addi	sp,sp,-12
 20001f8:	dfc00215 	stw	ra,8(sp)
 20001fc:	df000115 	stw	fp,4(sp)
 2000200:	df000104 	addi	fp,sp,4
 2000204:	00000106 	br	200020c <main+0x18>
    		hardware_encrypt();
    	}
    	else if(option == 1){
    		software_encrypt();
    	}
    }
 2000208:	0001883a 	nop
#define to_sw_port (int*) 0x00000030 // actual address here
#define to_sw_sig (int*) 0x00000020 // actual address here

int main(void){
    while(1){
    	*to_hw_sig = 0;
 200020c:	00801004 	movi	r2,64
 2000210:	10000015 	stw	zero,0(r2)
		*to_hw_port = 0;
 2000214:	00801404 	movi	r2,80
 2000218:	10000015 	stw	zero,0(r2)

		printf("Press reset for options!\n");
 200021c:	01008074 	movhi	r4,513
 2000220:	21088f04 	addi	r4,r4,8764
 2000224:	20011bc0 	call	20011bc <puts>
		while (*to_sw_sig != 3);
 2000228:	0001883a 	nop
 200022c:	00800804 	movi	r2,32
 2000230:	10800017 	ldw	r2,0(r2)
 2000234:	108000d8 	cmpnei	r2,r2,3
 2000238:	103ffc1e 	bne	r2,zero,200022c <__alt_data_end+0xff00022c>
		printf("Need to go to wait\n");
 200023c:	01008074 	movhi	r4,513
 2000240:	21089604 	addi	r4,r4,8792
 2000244:	20011bc0 	call	20011bc <puts>
		*to_hw_sig = 8;
 2000248:	00801004 	movi	r2,64
 200024c:	00c00204 	movi	r3,8
 2000250:	10c00015 	stw	r3,0(r2)
		while(*to_sw_sig != 7);
 2000254:	0001883a 	nop
 2000258:	00800804 	movi	r2,32
 200025c:	10800017 	ldw	r2,0(r2)
 2000260:	108001d8 	cmpnei	r2,r2,7
 2000264:	103ffc1e 	bne	r2,zero,2000258 <__alt_data_end+0xff000258>

    	int option;
    	printf("Enter 0 for hardware encrypt/decrypt, 1 for software encrypt/decrypt\n");
 2000268:	01008074 	movhi	r4,513
 200026c:	21089b04 	addi	r4,r4,8812
 2000270:	20011bc0 	call	20011bc <puts>
    	scanf("%d", &option);
 2000274:	01008074 	movhi	r4,513
 2000278:	2108ad04 	addi	r4,r4,8884
 200027c:	e17fff04 	addi	r5,fp,-4
 2000280:	20011d00 	call	20011d0 <scanf>
    	if(option == 0){
 2000284:	e0bfff17 	ldw	r2,-4(fp)
 2000288:	1000021e 	bne	r2,zero,2000294 <main+0xa0>
    		hardware_encrypt();
 200028c:	20002a80 	call	20002a8 <hardware_encrypt>
    	}
    	else if(option == 1){
    		software_encrypt();
    	}
    }
 2000290:	003fdd06 	br	2000208 <__alt_data_end+0xff000208>
    	printf("Enter 0 for hardware encrypt/decrypt, 1 for software encrypt/decrypt\n");
    	scanf("%d", &option);
    	if(option == 0){
    		hardware_encrypt();
    	}
    	else if(option == 1){
 2000294:	e0bfff17 	ldw	r2,-4(fp)
 2000298:	10800058 	cmpnei	r2,r2,1
 200029c:	103fda1e 	bne	r2,zero,2000208 <__alt_data_end+0xff000208>
    		software_encrypt();
 20002a0:	2000aac0 	call	2000aac <software_encrypt>
    	}
    }
 20002a4:	003fd806 	br	2000208 <__alt_data_end+0xff000208>

020002a8 <hardware_encrypt>:
	return 0;
}

/*---------------------------------------------------------------------------HARDWARE ENCYRPTION/DECRYPTION--------------------------------------------------*/
	// Start with pressing reset
void hardware_encrypt(){
 20002a8:	defff204 	addi	sp,sp,-56
 20002ac:	dfc00d15 	stw	ra,52(sp)
 20002b0:	df000c15 	stw	fp,48(sp)
 20002b4:	df000c04 	addi	fp,sp,48
	int p1, p2, pk, pt, ct, phi, n, d, new_pt, isprime1, isprime2; //prime1, prime2, public key, plaintext, ciphertext, private key.
	printf("RSA Hardware Encryption\n");
 20002b8:	01008074 	movhi	r4,513
 20002bc:	2108ae04 	addi	r4,r4,8888
 20002c0:	20011bc0 	call	20011bc <puts>
	while(*to_sw_sig != 7){
		//printf("to_sw_sig is %d\n", *to_sw_sig);;
	}
	*/

	isprime1 = 0;
 20002c4:	e03ff415 	stw	zero,-48(fp)

	while(isprime1 != 1){
 20002c8:	00004c06 	br	20003fc <hardware_encrypt+0x154>
		printf("Please enter the first prime number\n");
 20002cc:	01008074 	movhi	r4,513
 20002d0:	2108b404 	addi	r4,r4,8912
 20002d4:	20011bc0 	call	20011bc <puts>
		scanf("%d", &p1); //get the first prime number
 20002d8:	e0bffc04 	addi	r2,fp,-16
 20002dc:	01008074 	movhi	r4,513
 20002e0:	2108ad04 	addi	r4,r4,8884
 20002e4:	100b883a 	mov	r5,r2
 20002e8:	20011d00 	call	20011d0 <scanf>

		printf("Transmitting the first prime number....\n");
 20002ec:	01008074 	movhi	r4,513
 20002f0:	2108bd04 	addi	r4,r4,8948
 20002f4:	20011bc0 	call	20011bc <puts>
		//transmitting the first prime number
		*to_hw_sig = 1;
 20002f8:	00801004 	movi	r2,64
 20002fc:	00c00044 	movi	r3,1
 2000300:	10c00015 	stw	r3,0(r2)
		*to_hw_port = p1;
 2000304:	00801404 	movi	r2,80
 2000308:	e0fffc17 	ldw	r3,-16(fp)
 200030c:	10c00015 	stw	r3,0(r2)
		while (*to_sw_sig != 1);
 2000310:	0001883a 	nop
 2000314:	00800804 	movi	r2,32
 2000318:	10800017 	ldw	r2,0(r2)
 200031c:	10800058 	cmpnei	r2,r2,1
 2000320:	103ffc1e 	bne	r2,zero,2000314 <__alt_data_end+0xff000314>
		//printf("debug");
		*to_hw_sig = 0;
 2000324:	00801004 	movi	r2,64
 2000328:	10000015 	stw	zero,0(r2)
		while (*to_sw_sig != 2); //should be 0
 200032c:	0001883a 	nop
 2000330:	00800804 	movi	r2,32
 2000334:	10800017 	ldw	r2,0(r2)
 2000338:	10800098 	cmpnei	r2,r2,2
 200033c:	103ffc1e 	bne	r2,zero,2000330 <__alt_data_end+0xff000330>
		//printf("Should be at ack state now\n");
		*to_hw_sig = 8;
 2000340:	00801004 	movi	r2,64
 2000344:	00c00204 	movi	r3,8
 2000348:	10c00015 	stw	r3,0(r2)
		while(*to_sw_sig != 7);
 200034c:	0001883a 	nop
 2000350:	00800804 	movi	r2,32
 2000354:	10800017 	ldw	r2,0(r2)
 2000358:	108001d8 	cmpnei	r2,r2,7
 200035c:	103ffc1e 	bne	r2,zero,2000350 <__alt_data_end+0xff000350>
		*to_hw_sig = 11;
 2000360:	00801004 	movi	r2,64
 2000364:	00c002c4 	movi	r3,11
 2000368:	10c00015 	stw	r3,0(r2)
		//printf("checking prime..\n");
		while(*to_sw_sig != 2);
 200036c:	0001883a 	nop
 2000370:	00800804 	movi	r2,32
 2000374:	10800017 	ldw	r2,0(r2)
 2000378:	10800098 	cmpnei	r2,r2,2
 200037c:	103ffc1e 	bne	r2,zero,2000370 <__alt_data_end+0xff000370>
		*to_hw_sig = 1;
 2000380:	00801004 	movi	r2,64
 2000384:	00c00044 	movi	r3,1
 2000388:	10c00015 	stw	r3,0(r2)
		//printf("checking prime..\n");
		while(*to_sw_sig != 1);
 200038c:	0001883a 	nop
 2000390:	00800804 	movi	r2,32
 2000394:	10800017 	ldw	r2,0(r2)
 2000398:	10800058 	cmpnei	r2,r2,1
 200039c:	103ffc1e 	bne	r2,zero,2000390 <__alt_data_end+0xff000390>
		isprime1 = *to_sw_port;
 20003a0:	00800c04 	movi	r2,48
 20003a4:	10800017 	ldw	r2,0(r2)
 20003a8:	e0bff415 	stw	r2,-48(fp)
		*to_hw_sig = 2;
 20003ac:	00801004 	movi	r2,64
 20003b0:	00c00084 	movi	r3,2
 20003b4:	10c00015 	stw	r3,0(r2)
		//printf("checking prime..\n");
		while(*to_sw_sig != 0);
 20003b8:	0001883a 	nop
 20003bc:	00800804 	movi	r2,32
 20003c0:	10800017 	ldw	r2,0(r2)
 20003c4:	103ffd1e 	bne	r2,zero,20003bc <__alt_data_end+0xff0003bc>
		*to_hw_sig = 8;
 20003c8:	00801004 	movi	r2,64
 20003cc:	00c00204 	movi	r3,8
 20003d0:	10c00015 	stw	r3,0(r2)
		//printf("checking prime..\n");
		while(*to_sw_sig != 7);
 20003d4:	0001883a 	nop
 20003d8:	00800804 	movi	r2,32
 20003dc:	10800017 	ldw	r2,0(r2)
 20003e0:	108001d8 	cmpnei	r2,r2,7
 20003e4:	103ffc1e 	bne	r2,zero,20003d8 <__alt_data_end+0xff0003d8>
		if(isprime1 == 0){
 20003e8:	e0bff417 	ldw	r2,-48(fp)
 20003ec:	1000031e 	bne	r2,zero,20003fc <hardware_encrypt+0x154>
			printf("The number you entered is not a prime!!!\n");
 20003f0:	01008074 	movhi	r4,513
 20003f4:	2108c704 	addi	r4,r4,8988
 20003f8:	20011bc0 	call	20011bc <puts>
	}
	*/

	isprime1 = 0;

	while(isprime1 != 1){
 20003fc:	e0bff417 	ldw	r2,-48(fp)
 2000400:	10800058 	cmpnei	r2,r2,1
 2000404:	103fb11e 	bne	r2,zero,20002cc <__alt_data_end+0xff0002cc>
		if(isprime1 == 0){
			printf("The number you entered is not a prime!!!\n");
		}
	}

	isprime2 = 0;
 2000408:	e03ff515 	stw	zero,-44(fp)
	while(isprime2 != 1){
 200040c:	00004806 	br	2000530 <hardware_encrypt+0x288>
		printf("Please enter the second prime number\n");
 2000410:	01008074 	movhi	r4,513
 2000414:	2108d204 	addi	r4,r4,9032
 2000418:	20011bc0 	call	20011bc <puts>
		scanf("%d", &p2); //get the second prime number
 200041c:	e0bffd04 	addi	r2,fp,-12
 2000420:	01008074 	movhi	r4,513
 2000424:	2108ad04 	addi	r4,r4,8884
 2000428:	100b883a 	mov	r5,r2
 200042c:	20011d00 	call	20011d0 <scanf>

		//transmitting the second prime number
		*to_hw_sig = 2;
 2000430:	00801004 	movi	r2,64
 2000434:	00c00084 	movi	r3,2
 2000438:	10c00015 	stw	r3,0(r2)
		*to_hw_port = p2;
 200043c:	00801404 	movi	r2,80
 2000440:	e0fffd17 	ldw	r3,-12(fp)
 2000444:	10c00015 	stw	r3,0(r2)
		while (*to_sw_sig != 1);
 2000448:	0001883a 	nop
 200044c:	00800804 	movi	r2,32
 2000450:	10800017 	ldw	r2,0(r2)
 2000454:	10800058 	cmpnei	r2,r2,1
 2000458:	103ffc1e 	bne	r2,zero,200044c <__alt_data_end+0xff00044c>
		//printf("debug1");
		*to_hw_sig = 0;
 200045c:	00801004 	movi	r2,64
 2000460:	10000015 	stw	zero,0(r2)
		while (*to_sw_sig != 0);
 2000464:	0001883a 	nop
 2000468:	00800804 	movi	r2,32
 200046c:	10800017 	ldw	r2,0(r2)
 2000470:	103ffd1e 	bne	r2,zero,2000468 <__alt_data_end+0xff000468>
		//printf("debug2");
		*to_hw_sig = 8;
 2000474:	00801004 	movi	r2,64
 2000478:	00c00204 	movi	r3,8
 200047c:	10c00015 	stw	r3,0(r2)
		//while(*to_sw_sig != 0)
		//
		while(*to_sw_sig != 7);
 2000480:	0001883a 	nop
 2000484:	00800804 	movi	r2,32
 2000488:	10800017 	ldw	r2,0(r2)
 200048c:	108001d8 	cmpnei	r2,r2,7
 2000490:	103ffc1e 	bne	r2,zero,2000484 <__alt_data_end+0xff000484>
		*to_hw_sig = 12;
 2000494:	00801004 	movi	r2,64
 2000498:	00c00304 	movi	r3,12
 200049c:	10c00015 	stw	r3,0(r2)
		//printf("checking prime..\n");
		while(*to_sw_sig != 2);
 20004a0:	0001883a 	nop
 20004a4:	00800804 	movi	r2,32
 20004a8:	10800017 	ldw	r2,0(r2)
 20004ac:	10800098 	cmpnei	r2,r2,2
 20004b0:	103ffc1e 	bne	r2,zero,20004a4 <__alt_data_end+0xff0004a4>
		*to_hw_sig = 1;
 20004b4:	00801004 	movi	r2,64
 20004b8:	00c00044 	movi	r3,1
 20004bc:	10c00015 	stw	r3,0(r2)
		//printf("checking prime..\n");
		while(*to_sw_sig != 1);
 20004c0:	0001883a 	nop
 20004c4:	00800804 	movi	r2,32
 20004c8:	10800017 	ldw	r2,0(r2)
 20004cc:	10800058 	cmpnei	r2,r2,1
 20004d0:	103ffc1e 	bne	r2,zero,20004c4 <__alt_data_end+0xff0004c4>
		isprime2 = *to_sw_port;
 20004d4:	00800c04 	movi	r2,48
 20004d8:	10800017 	ldw	r2,0(r2)
 20004dc:	e0bff515 	stw	r2,-44(fp)
		*to_hw_sig = 2;
 20004e0:	00801004 	movi	r2,64
 20004e4:	00c00084 	movi	r3,2
 20004e8:	10c00015 	stw	r3,0(r2)
		//printf("checking prime..\n");
		while(*to_sw_sig != 0);
 20004ec:	0001883a 	nop
 20004f0:	00800804 	movi	r2,32
 20004f4:	10800017 	ldw	r2,0(r2)
 20004f8:	103ffd1e 	bne	r2,zero,20004f0 <__alt_data_end+0xff0004f0>
		*to_hw_sig = 8;
 20004fc:	00801004 	movi	r2,64
 2000500:	00c00204 	movi	r3,8
 2000504:	10c00015 	stw	r3,0(r2)
		//printf("checking prime..\n");
		while(*to_sw_sig != 7);
 2000508:	0001883a 	nop
 200050c:	00800804 	movi	r2,32
 2000510:	10800017 	ldw	r2,0(r2)
 2000514:	108001d8 	cmpnei	r2,r2,7
 2000518:	103ffc1e 	bne	r2,zero,200050c <__alt_data_end+0xff00050c>
		if(isprime2 == 0){
 200051c:	e0bff517 	ldw	r2,-44(fp)
 2000520:	1000031e 	bne	r2,zero,2000530 <hardware_encrypt+0x288>
			printf("The number you entered is not a prime!!!\n");
 2000524:	01008074 	movhi	r4,513
 2000528:	2108c704 	addi	r4,r4,8988
 200052c:	20011bc0 	call	20011bc <puts>
			printf("The number you entered is not a prime!!!\n");
		}
	}

	isprime2 = 0;
	while(isprime2 != 1){
 2000530:	e0bff517 	ldw	r2,-44(fp)
 2000534:	10800058 	cmpnei	r2,r2,1
 2000538:	103fb51e 	bne	r2,zero,2000410 <__alt_data_end+0xff000410>
			printf("The number you entered is not a prime!!!\n");
		}
	}

	//get n from the hardware
	*to_hw_sig = 9; // send to rsa n
 200053c:	00801004 	movi	r2,64
 2000540:	00c00244 	movi	r3,9
 2000544:	10c00015 	stw	r3,0(r2)
	//while(*to_sw_sig != 3){
	//	wprintf("to_sw_sig is %d\n", *to_sw_sig);
	//}
	printf("At state send_to_rsa_n\n");
 2000548:	01008074 	movhi	r4,513
 200054c:	2108dc04 	addi	r4,r4,9072
 2000550:	20011bc0 	call	20011bc <puts>
	while(*to_sw_sig != 2); //wait phi to get to get_from_rsa phi
 2000554:	0001883a 	nop
 2000558:	00800804 	movi	r2,32
 200055c:	10800017 	ldw	r2,0(r2)
 2000560:	10800098 	cmpnei	r2,r2,2
 2000564:	103ffc1e 	bne	r2,zero,2000558 <__alt_data_end+0xff000558>
	//printf("Retrieving Phi\n");
	*to_hw_sig = 1;//go to send back phi
 2000568:	00801004 	movi	r2,64
 200056c:	00c00044 	movi	r3,1
 2000570:	10c00015 	stw	r3,0(r2)
	while(*to_sw_sig != 1); //
 2000574:	0001883a 	nop
 2000578:	00800804 	movi	r2,32
 200057c:	10800017 	ldw	r2,0(r2)
 2000580:	10800058 	cmpnei	r2,r2,1
 2000584:	103ffc1e 	bne	r2,zero,2000578 <__alt_data_end+0xff000578>
	printf("Got to send back n\n");
 2000588:	01008074 	movhi	r4,513
 200058c:	2108e204 	addi	r4,r4,9096
 2000590:	20011bc0 	call	20011bc <puts>
	n = *to_sw_port;//get phi value
 2000594:	00800c04 	movi	r2,48
 2000598:	10800017 	ldw	r2,0(r2)
 200059c:	e0bff715 	stw	r2,-36(fp)
	*to_hw_sig = 2; //go to ack phi
 20005a0:	00801004 	movi	r2,64
 20005a4:	00c00084 	movi	r3,2
 20005a8:	10c00015 	stw	r3,0(r2)
	while(*to_sw_sig != 0);
 20005ac:	0001883a 	nop
 20005b0:	00800804 	movi	r2,32
 20005b4:	10800017 	ldw	r2,0(r2)
 20005b8:	103ffd1e 	bne	r2,zero,20005b0 <__alt_data_end+0xff0005b0>
	//printf("Got to ack phi\n");
	*to_hw_sig = 8; //go back to wait state
 20005bc:	00801004 	movi	r2,64
 20005c0:	00c00204 	movi	r3,8
 20005c4:	10c00015 	stw	r3,0(r2)
	while(*to_sw_sig != 7);
 20005c8:	0001883a 	nop
 20005cc:	00800804 	movi	r2,32
 20005d0:	10800017 	ldw	r2,0(r2)
 20005d4:	108001d8 	cmpnei	r2,r2,7
 20005d8:	103ffc1e 	bne	r2,zero,20005cc <__alt_data_end+0xff0005cc>
	printf("Generated n is %d\n", n);
 20005dc:	01008074 	movhi	r4,513
 20005e0:	2108e704 	addi	r4,r4,9116
 20005e4:	e17ff717 	ldw	r5,-36(fp)
 20005e8:	20010fc0 	call	20010fc <printf>


	//get phi from the hardware
	*to_hw_sig = 3; // send to rsa phi
 20005ec:	00801004 	movi	r2,64
 20005f0:	00c000c4 	movi	r3,3
 20005f4:	10c00015 	stw	r3,0(r2)
	//while(*to_sw_sig != 3){
	//	wprintf("to_sw_sig is %d\n", *to_sw_sig);
	//}
	printf("At state send_to_rsa_phi\n");
 20005f8:	01008074 	movhi	r4,513
 20005fc:	2108ec04 	addi	r4,r4,9136
 2000600:	20011bc0 	call	20011bc <puts>
	while(*to_sw_sig != 2); //wait phi to get to get_from_rsa phi
 2000604:	0001883a 	nop
 2000608:	00800804 	movi	r2,32
 200060c:	10800017 	ldw	r2,0(r2)
 2000610:	10800098 	cmpnei	r2,r2,2
 2000614:	103ffc1e 	bne	r2,zero,2000608 <__alt_data_end+0xff000608>
	//printf("Retrieving Phi\n");
	*to_hw_sig = 1;//go to send back phi
 2000618:	00801004 	movi	r2,64
 200061c:	00c00044 	movi	r3,1
 2000620:	10c00015 	stw	r3,0(r2)
	while(*to_sw_sig != 1); //
 2000624:	0001883a 	nop
 2000628:	00800804 	movi	r2,32
 200062c:	10800017 	ldw	r2,0(r2)
 2000630:	10800058 	cmpnei	r2,r2,1
 2000634:	103ffc1e 	bne	r2,zero,2000628 <__alt_data_end+0xff000628>
	printf("Got to send back phi\n");
 2000638:	01008074 	movhi	r4,513
 200063c:	2108f304 	addi	r4,r4,9164
 2000640:	20011bc0 	call	20011bc <puts>
	phi = *to_sw_port;//get phi value
 2000644:	00800c04 	movi	r2,48
 2000648:	10800017 	ldw	r2,0(r2)
 200064c:	e0bff815 	stw	r2,-32(fp)
	*to_hw_sig = 2; //go to ack phi
 2000650:	00801004 	movi	r2,64
 2000654:	00c00084 	movi	r3,2
 2000658:	10c00015 	stw	r3,0(r2)
	while(*to_sw_sig != 0);
 200065c:	0001883a 	nop
 2000660:	00800804 	movi	r2,32
 2000664:	10800017 	ldw	r2,0(r2)
 2000668:	103ffd1e 	bne	r2,zero,2000660 <__alt_data_end+0xff000660>
	//printf("Got to ack phi\n");
	*to_hw_sig = 8; //go back to wait state
 200066c:	00801004 	movi	r2,64
 2000670:	00c00204 	movi	r3,8
 2000674:	10c00015 	stw	r3,0(r2)
	while(*to_sw_sig != 7);
 2000678:	0001883a 	nop
 200067c:	00800804 	movi	r2,32
 2000680:	10800017 	ldw	r2,0(r2)
 2000684:	108001d8 	cmpnei	r2,r2,7
 2000688:	103ffc1e 	bne	r2,zero,200067c <__alt_data_end+0xff00067c>
	printf("Generated phi is %d\n", phi);
 200068c:	01008074 	movhi	r4,513
 2000690:	2108f904 	addi	r4,r4,9188
 2000694:	e17ff817 	ldw	r5,-32(fp)
 2000698:	20010fc0 	call	20010fc <printf>
	int e_bool = 0;
 200069c:	e03ff615 	stw	zero,-40(fp)
	while(e_bool == 0){
 20006a0:	00001306 	br	20006f0 <hardware_encrypt+0x448>
		printf("Please enter a prime number that is between 1 and %d for public key (e)\n", phi);
 20006a4:	01008074 	movhi	r4,513
 20006a8:	2108ff04 	addi	r4,r4,9212
 20006ac:	e17ff817 	ldw	r5,-32(fp)
 20006b0:	20010fc0 	call	20010fc <printf>

		//printf("Please enter the public key\n");
		scanf("%d", &pk); //get the public key
 20006b4:	e0bffe04 	addi	r2,fp,-8
 20006b8:	01008074 	movhi	r4,513
 20006bc:	2108ad04 	addi	r4,r4,8884
 20006c0:	100b883a 	mov	r5,r2
 20006c4:	20011d00 	call	20011d0 <scanf>
		e_bool = e_checker(pk, phi);
 20006c8:	e0bffe17 	ldw	r2,-8(fp)
 20006cc:	1009883a 	mov	r4,r2
 20006d0:	e17ff817 	ldw	r5,-32(fp)
 20006d4:	2000f000 	call	2000f00 <e_checker>
 20006d8:	e0bff615 	stw	r2,-40(fp)
		if(e_bool == 0)
 20006dc:	e0bff617 	ldw	r2,-40(fp)
 20006e0:	1000031e 	bne	r2,zero,20006f0 <hardware_encrypt+0x448>
			printf("Your number for e is invalid\n");
 20006e4:	01008074 	movhi	r4,513
 20006e8:	21091204 	addi	r4,r4,9288
 20006ec:	20011bc0 	call	20011bc <puts>
	//printf("Got to ack phi\n");
	*to_hw_sig = 8; //go back to wait state
	while(*to_sw_sig != 7);
	printf("Generated phi is %d\n", phi);
	int e_bool = 0;
	while(e_bool == 0){
 20006f0:	e0bff617 	ldw	r2,-40(fp)
 20006f4:	103feb26 	beq	r2,zero,20006a4 <__alt_data_end+0xff0006a4>
		if(e_bool == 0)
			printf("Your number for e is invalid\n");
	}

	//transmitting the public key
	*to_hw_sig = 4;
 20006f8:	00801004 	movi	r2,64
 20006fc:	00c00104 	movi	r3,4
 2000700:	10c00015 	stw	r3,0(r2)
	*to_hw_port = pk;
 2000704:	00801404 	movi	r2,80
 2000708:	e0fffe17 	ldw	r3,-8(fp)
 200070c:	10c00015 	stw	r3,0(r2)
	while (*to_sw_sig != 1);
 2000710:	0001883a 	nop
 2000714:	00800804 	movi	r2,32
 2000718:	10800017 	ldw	r2,0(r2)
 200071c:	10800058 	cmpnei	r2,r2,1
 2000720:	103ffc1e 	bne	r2,zero,2000714 <__alt_data_end+0xff000714>
	*to_hw_sig = 0;
 2000724:	00801004 	movi	r2,64
 2000728:	10000015 	stw	zero,0(r2)
	while (*to_sw_sig != 0);
 200072c:	0001883a 	nop
 2000730:	00800804 	movi	r2,32
 2000734:	10800017 	ldw	r2,0(r2)
 2000738:	103ffd1e 	bne	r2,zero,2000730 <__alt_data_end+0xff000730>
	*to_hw_sig = 8;
 200073c:	00801004 	movi	r2,64
 2000740:	00c00204 	movi	r3,8
 2000744:	10c00015 	stw	r3,0(r2)
	while(*to_sw_sig != 7);
 2000748:	0001883a 	nop
 200074c:	00800804 	movi	r2,32
 2000750:	10800017 	ldw	r2,0(r2)
 2000754:	108001d8 	cmpnei	r2,r2,7
 2000758:	103ffc1e 	bne	r2,zero,200074c <__alt_data_end+0xff00074c>

	//GEND//
	printf("Generating private key...\n");
 200075c:	01008074 	movhi	r4,513
 2000760:	21091a04 	addi	r4,r4,9320
 2000764:	20011bc0 	call	20011bc <puts>
	*to_hw_sig = 10;
 2000768:	00801004 	movi	r2,64
 200076c:	00c00284 	movi	r3,10
 2000770:	10c00015 	stw	r3,0(r2)
	while(*to_sw_sig != 3);
 2000774:	0001883a 	nop
 2000778:	00800804 	movi	r2,32
 200077c:	10800017 	ldw	r2,0(r2)
 2000780:	108000d8 	cmpnei	r2,r2,3
 2000784:	103ffc1e 	bne	r2,zero,2000778 <__alt_data_end+0xff000778>
	//printf("Got to SEND_TO_RSA_GEND\n");
	//printf("to_sw_sig is %d\n", *to_sw_sig);
	*to_hw_sig = 5; //for generated_ready = 1'b1;
 2000788:	00801004 	movi	r2,64
 200078c:	00c00144 	movi	r3,5
 2000790:	10c00015 	stw	r3,0(r2)
	//printf("to_sw_sig is %d\n", *to_sw_sig);
	while(*to_sw_sig != 2){
 2000794:	0001883a 	nop
 2000798:	00800804 	movi	r2,32
 200079c:	10800017 	ldw	r2,0(r2)
 20007a0:	10800098 	cmpnei	r2,r2,2
 20007a4:	103ffc1e 	bne	r2,zero,2000798 <__alt_data_end+0xff000798>
		//printf("to_sw_sig is %d\n", *to_sw_sig);
	}
	printf("Retrieving private key\n");
 20007a8:	01008074 	movhi	r4,513
 20007ac:	21092104 	addi	r4,r4,9348
 20007b0:	20011bc0 	call	20011bc <puts>
	*to_hw_sig = 1; //GO TO SEND_BACK_GEND
 20007b4:	00801004 	movi	r2,64
 20007b8:	00c00044 	movi	r3,1
 20007bc:	10c00015 	stw	r3,0(r2)
	while(*to_sw_sig != 1);
 20007c0:	0001883a 	nop
 20007c4:	00800804 	movi	r2,32
 20007c8:	10800017 	ldw	r2,0(r2)
 20007cc:	10800058 	cmpnei	r2,r2,1
 20007d0:	103ffc1e 	bne	r2,zero,20007c4 <__alt_data_end+0xff0007c4>
	d = *to_sw_port;
 20007d4:	00800c04 	movi	r2,48
 20007d8:	10800017 	ldw	r2,0(r2)
 20007dc:	e0bff915 	stw	r2,-28(fp)
	*to_hw_sig = 2; //GO TO GOT_ACK_GEND
 20007e0:	00801004 	movi	r2,64
 20007e4:	00c00084 	movi	r3,2
 20007e8:	10c00015 	stw	r3,0(r2)
	while(*to_sw_sig != 0);
 20007ec:	0001883a 	nop
 20007f0:	00800804 	movi	r2,32
 20007f4:	10800017 	ldw	r2,0(r2)
 20007f8:	103ffd1e 	bne	r2,zero,20007f0 <__alt_data_end+0xff0007f0>
	//printf("got to got ack gend\n");
	*to_hw_sig = 8; // go back to wait state
 20007fc:	00801004 	movi	r2,64
 2000800:	00c00204 	movi	r3,8
 2000804:	10c00015 	stw	r3,0(r2)
	while(*to_sw_sig != 7);
 2000808:	0001883a 	nop
 200080c:	00800804 	movi	r2,32
 2000810:	10800017 	ldw	r2,0(r2)
 2000814:	108001d8 	cmpnei	r2,r2,7
 2000818:	103ffc1e 	bne	r2,zero,200080c <__alt_data_end+0xff00080c>
	printf("The private key is %d\n", d);
 200081c:	01008074 	movhi	r4,513
 2000820:	21092704 	addi	r4,r4,9372
 2000824:	e17ff917 	ldw	r5,-28(fp)
 2000828:	20010fc0 	call	20010fc <printf>
	//GEND//

	printf("Please enter the plain text\n");
 200082c:	01008074 	movhi	r4,513
 2000830:	21092d04 	addi	r4,r4,9396
 2000834:	20011bc0 	call	20011bc <puts>
	scanf("%d", &pt); //get the plain text
 2000838:	e0bfff04 	addi	r2,fp,-4
 200083c:	01008074 	movhi	r4,513
 2000840:	2108ad04 	addi	r4,r4,8884
 2000844:	100b883a 	mov	r5,r2
 2000848:	20011d00 	call	20011d0 <scanf>

	//transmitting the plain text
	*to_hw_sig = 5;
 200084c:	00801004 	movi	r2,64
 2000850:	00c00144 	movi	r3,5
 2000854:	10c00015 	stw	r3,0(r2)
	*to_hw_port = pt;
 2000858:	00801404 	movi	r2,80
 200085c:	e0ffff17 	ldw	r3,-4(fp)
 2000860:	10c00015 	stw	r3,0(r2)
	while (*to_sw_sig != 1);
 2000864:	0001883a 	nop
 2000868:	00800804 	movi	r2,32
 200086c:	10800017 	ldw	r2,0(r2)
 2000870:	10800058 	cmpnei	r2,r2,1
 2000874:	103ffc1e 	bne	r2,zero,2000868 <__alt_data_end+0xff000868>
	*to_hw_sig = 0;
 2000878:	00801004 	movi	r2,64
 200087c:	10000015 	stw	zero,0(r2)
	while (*to_sw_sig != 0);
 2000880:	0001883a 	nop
 2000884:	00800804 	movi	r2,32
 2000888:	10800017 	ldw	r2,0(r2)
 200088c:	103ffd1e 	bne	r2,zero,2000884 <__alt_data_end+0xff000884>
	*to_hw_sig = 8;
 2000890:	00801004 	movi	r2,64
 2000894:	00c00204 	movi	r3,8
 2000898:	10c00015 	stw	r3,0(r2)
	while(*to_sw_sig != 7);
 200089c:	0001883a 	nop
 20008a0:	00800804 	movi	r2,32
 20008a4:	10800017 	ldw	r2,0(r2)
 20008a8:	108001d8 	cmpnei	r2,r2,7
 20008ac:	103ffc1e 	bne	r2,zero,20008a0 <__alt_data_end+0xff0008a0>


	printf("Encrypting...\n");
 20008b0:	01008074 	movhi	r4,513
 20008b4:	21093404 	addi	r4,r4,9424
 20008b8:	20011bc0 	call	20011bc <puts>

	*to_hw_sig = 6; //tell hw to encrypt, go to the state SEND_TO_RSA
 20008bc:	00801004 	movi	r2,64
 20008c0:	00c00184 	movi	r3,6
 20008c4:	10c00015 	stw	r3,0(r2)
	while(*to_sw_sig != 3){
 20008c8:	00000606 	br	20008e4 <hardware_encrypt+0x63c>
		printf("to_sw_sig is %d\n", *to_sw_sig);
 20008cc:	00800804 	movi	r2,32
 20008d0:	10800017 	ldw	r2,0(r2)
 20008d4:	01008074 	movhi	r4,513
 20008d8:	21093804 	addi	r4,r4,9440
 20008dc:	100b883a 	mov	r5,r2
 20008e0:	20010fc0 	call	20010fc <printf>


	printf("Encrypting...\n");

	*to_hw_sig = 6; //tell hw to encrypt, go to the state SEND_TO_RSA
	while(*to_sw_sig != 3){
 20008e4:	00800804 	movi	r2,32
 20008e8:	10800017 	ldw	r2,0(r2)
 20008ec:	108000d8 	cmpnei	r2,r2,3
 20008f0:	103ff61e 	bne	r2,zero,20008cc <__alt_data_end+0xff0008cc>

	//printf("Press 1 to encrypt\n");
	//int junk;
	//scanf("%d", &junk);
	//printf("Junk %d\n", junk);
	*to_hw_sig = 5;
 20008f4:	00801004 	movi	r2,64
 20008f8:	00c00144 	movi	r3,5
 20008fc:	10c00015 	stw	r3,0(r2)
	while(*to_sw_sig != 2){// wait decryption to complete (GET_FROM_RSA)
 2000900:	0001883a 	nop
 2000904:	00800804 	movi	r2,32
 2000908:	10800017 	ldw	r2,0(r2)
 200090c:	10800098 	cmpnei	r2,r2,2
 2000910:	103ffc1e 	bne	r2,zero,2000904 <__alt_data_end+0xff000904>
		//printf("to_sw_sig is %d\n", *to_sw_sig);
	}
	printf("Retrieving Ciphertext\n");
 2000914:	01008074 	movhi	r4,513
 2000918:	21093d04 	addi	r4,r4,9460
 200091c:	20011bc0 	call	20011bc <puts>
	*to_hw_sig = 1; //GO TO SEND_BACK_CIPHERTEXT
 2000920:	00801004 	movi	r2,64
 2000924:	00c00044 	movi	r3,1
 2000928:	10c00015 	stw	r3,0(r2)
	while(*to_sw_sig != 1);
 200092c:	0001883a 	nop
 2000930:	00800804 	movi	r2,32
 2000934:	10800017 	ldw	r2,0(r2)
 2000938:	10800058 	cmpnei	r2,r2,1
 200093c:	103ffc1e 	bne	r2,zero,2000930 <__alt_data_end+0xff000930>
	//printf("got to send back rsa\n");
	ct = *to_sw_port;
 2000940:	00800c04 	movi	r2,48
 2000944:	10800017 	ldw	r2,0(r2)
 2000948:	e0bffa15 	stw	r2,-24(fp)
	*to_hw_sig = 2; //GO TO GOT_ACK_CIPHERTEXT
 200094c:	00801004 	movi	r2,64
 2000950:	00c00084 	movi	r3,2
 2000954:	10c00015 	stw	r3,0(r2)
	while(*to_sw_sig != 0);
 2000958:	0001883a 	nop
 200095c:	00800804 	movi	r2,32
 2000960:	10800017 	ldw	r2,0(r2)
 2000964:	103ffd1e 	bne	r2,zero,200095c <__alt_data_end+0xff00095c>
	//printf("got to got ack ciphertext\n");
	*to_hw_sig = 8; // go back to wait state
 2000968:	00801004 	movi	r2,64
 200096c:	00c00204 	movi	r3,8
 2000970:	10c00015 	stw	r3,0(r2)
	while(*to_sw_sig != 7);
 2000974:	0001883a 	nop
 2000978:	00800804 	movi	r2,32
 200097c:	10800017 	ldw	r2,0(r2)
 2000980:	108001d8 	cmpnei	r2,r2,7
 2000984:	103ffc1e 	bne	r2,zero,2000978 <__alt_data_end+0xff000978>
	printf("The encrypted message is %d\n",ct);
 2000988:	01008074 	movhi	r4,513
 200098c:	21094304 	addi	r4,r4,9484
 2000990:	e17ffa17 	ldw	r5,-24(fp)
 2000994:	20010fc0 	call	20010fc <printf>


	printf("RSA Encryption is done!\n");
 2000998:	01008074 	movhi	r4,513
 200099c:	21094b04 	addi	r4,r4,9516
 20009a0:	20011bc0 	call	20011bc <puts>

	printf("Decrypting...\n");
 20009a4:	01008074 	movhi	r4,513
 20009a8:	21095104 	addi	r4,r4,9540
 20009ac:	20011bc0 	call	20011bc <puts>
	*to_hw_sig = 7; //tell hw to decrypt, go to the state SEND_TO_RSA
 20009b0:	00801004 	movi	r2,64
 20009b4:	00c001c4 	movi	r3,7
 20009b8:	10c00015 	stw	r3,0(r2)
	while(*to_sw_sig != 3){
 20009bc:	00000606 	br	20009d8 <hardware_encrypt+0x730>
		printf("to_sw_sig is %d\n", *to_sw_sig);
 20009c0:	00800804 	movi	r2,32
 20009c4:	10800017 	ldw	r2,0(r2)
 20009c8:	01008074 	movhi	r4,513
 20009cc:	21093804 	addi	r4,r4,9440
 20009d0:	100b883a 	mov	r5,r2
 20009d4:	20010fc0 	call	20010fc <printf>

	printf("RSA Encryption is done!\n");

	printf("Decrypting...\n");
	*to_hw_sig = 7; //tell hw to decrypt, go to the state SEND_TO_RSA
	while(*to_sw_sig != 3){
 20009d8:	00800804 	movi	r2,32
 20009dc:	10800017 	ldw	r2,0(r2)
 20009e0:	108000d8 	cmpnei	r2,r2,3
 20009e4:	103ff61e 	bne	r2,zero,20009c0 <__alt_data_end+0xff0009c0>

	//printf("Press 1 to encrypt\n");
	//int junk;
	//scanf("%d", &junk);
	//printf("Junk %d\n", junk);
	*to_hw_sig = 5;
 20009e8:	00801004 	movi	r2,64
 20009ec:	00c00144 	movi	r3,5
 20009f0:	10c00015 	stw	r3,0(r2)
	while(*to_sw_sig != 2){// wait decryption to complete (GET_FROM_RSA)
 20009f4:	0001883a 	nop
 20009f8:	00800804 	movi	r2,32
 20009fc:	10800017 	ldw	r2,0(r2)
 2000a00:	10800098 	cmpnei	r2,r2,2
 2000a04:	103ffc1e 	bne	r2,zero,20009f8 <__alt_data_end+0xff0009f8>
		//printf("to_sw_sig is %d\n", *to_sw_sig);
	}
	printf("Retrieving Plaintext\n");
 2000a08:	01008074 	movhi	r4,513
 2000a0c:	21095504 	addi	r4,r4,9556
 2000a10:	20011bc0 	call	20011bc <puts>
	*to_hw_sig = 1; //GO TO SEND_BACK_PLAINTEXT
 2000a14:	00801004 	movi	r2,64
 2000a18:	00c00044 	movi	r3,1
 2000a1c:	10c00015 	stw	r3,0(r2)
	while(*to_sw_sig != 1);
 2000a20:	0001883a 	nop
 2000a24:	00800804 	movi	r2,32
 2000a28:	10800017 	ldw	r2,0(r2)
 2000a2c:	10800058 	cmpnei	r2,r2,1
 2000a30:	103ffc1e 	bne	r2,zero,2000a24 <__alt_data_end+0xff000a24>
	//printf("got to send back rsa\n");
	new_pt = *to_sw_port;
 2000a34:	00800c04 	movi	r2,48
 2000a38:	10800017 	ldw	r2,0(r2)
 2000a3c:	e0bffb15 	stw	r2,-20(fp)
	*to_hw_sig = 2; //GO TO GOT_ACK_PLAINTEXT
 2000a40:	00801004 	movi	r2,64
 2000a44:	00c00084 	movi	r3,2
 2000a48:	10c00015 	stw	r3,0(r2)
	while(*to_sw_sig != 0);
 2000a4c:	0001883a 	nop
 2000a50:	00800804 	movi	r2,32
 2000a54:	10800017 	ldw	r2,0(r2)
 2000a58:	103ffd1e 	bne	r2,zero,2000a50 <__alt_data_end+0xff000a50>
	//printf("got to got ack plaintext\n");
	*to_hw_sig = 8; // go back to wait state
 2000a5c:	00801004 	movi	r2,64
 2000a60:	00c00204 	movi	r3,8
 2000a64:	10c00015 	stw	r3,0(r2)
	while(*to_sw_sig != 7);
 2000a68:	0001883a 	nop
 2000a6c:	00800804 	movi	r2,32
 2000a70:	10800017 	ldw	r2,0(r2)
 2000a74:	108001d8 	cmpnei	r2,r2,7
 2000a78:	103ffc1e 	bne	r2,zero,2000a6c <__alt_data_end+0xff000a6c>
	printf("The decrypted message is %d\n",new_pt);
 2000a7c:	01008074 	movhi	r4,513
 2000a80:	21095b04 	addi	r4,r4,9580
 2000a84:	e17ffb17 	ldw	r5,-20(fp)
 2000a88:	20010fc0 	call	20010fc <printf>
	printf("Decryption is done\n");
 2000a8c:	01008074 	movhi	r4,513
 2000a90:	21096304 	addi	r4,r4,9612
 2000a94:	20011bc0 	call	20011bc <puts>

}
 2000a98:	e037883a 	mov	sp,fp
 2000a9c:	dfc00117 	ldw	ra,4(sp)
 2000aa0:	df000017 	ldw	fp,0(sp)
 2000aa4:	dec00204 	addi	sp,sp,8
 2000aa8:	f800283a 	ret

02000aac <software_encrypt>:

void software_encrypt(){
 2000aac:	defff004 	addi	sp,sp,-64
 2000ab0:	dfc00f15 	stw	ra,60(sp)
 2000ab4:	df000e15 	stw	fp,56(sp)
 2000ab8:	df000e04 	addi	fp,sp,56
	int i, j;

	printf("RSA encryption ready...\n");
 2000abc:	01008074 	movhi	r4,513
 2000ac0:	21096804 	addi	r4,r4,9632
 2000ac4:	20011bc0 	call	20011bc <puts>

	int p, q;
	int primeconfirm1 = 0;
 2000ac8:	e03ff215 	stw	zero,-56(fp)
	int primeconfirm2 = 0;
 2000acc:	e03ff315 	stw	zero,-52(fp)
	while(primeconfirm1 == 0){
 2000ad0:	00001106 	br	2000b18 <software_encrypt+0x6c>

		printf("Enter first prime number: ");
 2000ad4:	01008074 	movhi	r4,513
 2000ad8:	21096e04 	addi	r4,r4,9656
 2000adc:	20010fc0 	call	20010fc <printf>
		scanf("%d", &p); //need to be passing pointers in yo
 2000ae0:	e0bffb04 	addi	r2,fp,-20
 2000ae4:	01008074 	movhi	r4,513
 2000ae8:	2108ad04 	addi	r4,r4,8884
 2000aec:	100b883a 	mov	r5,r2
 2000af0:	20011d00 	call	20011d0 <scanf>
		primeconfirm1 = prime_checker(p);
 2000af4:	e0bffb17 	ldw	r2,-20(fp)
 2000af8:	1009883a 	mov	r4,r2
 2000afc:	2000e880 	call	2000e88 <prime_checker>
 2000b00:	e0bff215 	stw	r2,-56(fp)
		if(primeconfirm1 == 0)
 2000b04:	e0bff217 	ldw	r2,-56(fp)
 2000b08:	1000031e 	bne	r2,zero,2000b18 <software_encrypt+0x6c>
			printf("Your first number is not prime.\n");
 2000b0c:	01008074 	movhi	r4,513
 2000b10:	21097504 	addi	r4,r4,9684
 2000b14:	20011bc0 	call	20011bc <puts>
	printf("RSA encryption ready...\n");

	int p, q;
	int primeconfirm1 = 0;
	int primeconfirm2 = 0;
	while(primeconfirm1 == 0){
 2000b18:	e0bff217 	ldw	r2,-56(fp)
 2000b1c:	103fed26 	beq	r2,zero,2000ad4 <__alt_data_end+0xff000ad4>
		scanf("%d", &p); //need to be passing pointers in yo
		primeconfirm1 = prime_checker(p);
		if(primeconfirm1 == 0)
			printf("Your first number is not prime.\n");
	}
	while(primeconfirm2 == 0){
 2000b20:	00001106 	br	2000b68 <software_encrypt+0xbc>

		printf("Enter second prime number: ");
 2000b24:	01008074 	movhi	r4,513
 2000b28:	21097d04 	addi	r4,r4,9716
 2000b2c:	20010fc0 	call	20010fc <printf>
		scanf("%d", &q);
 2000b30:	e0bffc04 	addi	r2,fp,-16
 2000b34:	01008074 	movhi	r4,513
 2000b38:	2108ad04 	addi	r4,r4,8884
 2000b3c:	100b883a 	mov	r5,r2
 2000b40:	20011d00 	call	20011d0 <scanf>
		primeconfirm2 = prime_checker(q);
 2000b44:	e0bffc17 	ldw	r2,-16(fp)
 2000b48:	1009883a 	mov	r4,r2
 2000b4c:	2000e880 	call	2000e88 <prime_checker>
 2000b50:	e0bff315 	stw	r2,-52(fp)
		if(primeconfirm2 == 0)
 2000b54:	e0bff317 	ldw	r2,-52(fp)
 2000b58:	1000031e 	bne	r2,zero,2000b68 <software_encrypt+0xbc>
			printf("Your second number is not prime.\n");
 2000b5c:	01008074 	movhi	r4,513
 2000b60:	21098404 	addi	r4,r4,9744
 2000b64:	20011bc0 	call	20011bc <puts>
		scanf("%d", &p); //need to be passing pointers in yo
		primeconfirm1 = prime_checker(p);
		if(primeconfirm1 == 0)
			printf("Your first number is not prime.\n");
	}
	while(primeconfirm2 == 0){
 2000b68:	e0bff317 	ldw	r2,-52(fp)
 2000b6c:	103fed26 	beq	r2,zero,2000b24 <__alt_data_end+0xff000b24>
		scanf("%d", &q);
		primeconfirm2 = prime_checker(q);
		if(primeconfirm2 == 0)
			printf("Your second number is not prime.\n");
	}
	printf("First number: %d, Second number: %d\n", p, q);
 2000b70:	e0fffb17 	ldw	r3,-20(fp)
 2000b74:	e0bffc17 	ldw	r2,-16(fp)
 2000b78:	01008074 	movhi	r4,513
 2000b7c:	21098d04 	addi	r4,r4,9780
 2000b80:	180b883a 	mov	r5,r3
 2000b84:	100d883a 	mov	r6,r2
 2000b88:	20010fc0 	call	20010fc <printf>

	int e_bool;
	e_bool = 0;
 2000b8c:	e03ff415 	stw	zero,-48(fp)
	int n, phi, e, s, d;
	n = p*q;
 2000b90:	e0fffb17 	ldw	r3,-20(fp)
 2000b94:	e0bffc17 	ldw	r2,-16(fp)
 2000b98:	1809883a 	mov	r4,r3
 2000b9c:	100b883a 	mov	r5,r2
 2000ba0:	20010a80 	call	20010a8 <__mulsi3>
 2000ba4:	e0bff715 	stw	r2,-36(fp)
	phi = (p-1)*(q-1); //totient
 2000ba8:	e0bffb17 	ldw	r2,-20(fp)
 2000bac:	10ffffc4 	addi	r3,r2,-1
 2000bb0:	e0bffc17 	ldw	r2,-16(fp)
 2000bb4:	10bfffc4 	addi	r2,r2,-1
 2000bb8:	1809883a 	mov	r4,r3
 2000bbc:	100b883a 	mov	r5,r2
 2000bc0:	20010a80 	call	20010a8 <__mulsi3>
 2000bc4:	e0bff815 	stw	r2,-32(fp)
	printf("Phi value = %d\n", phi);
 2000bc8:	01008074 	movhi	r4,513
 2000bcc:	21099704 	addi	r4,r4,9820
 2000bd0:	e17ff817 	ldw	r5,-32(fp)
 2000bd4:	20010fc0 	call	20010fc <printf>
	while(e_bool == 0){
 2000bd8:	00001206 	br	2000c24 <software_encrypt+0x178>
		printf("Enter a prime number that is less than phi for (e): ");
 2000bdc:	01008074 	movhi	r4,513
 2000be0:	21099b04 	addi	r4,r4,9836
 2000be4:	20010fc0 	call	20010fc <printf>
		scanf("%d", &e);
 2000be8:	e0bffd04 	addi	r2,fp,-12
 2000bec:	01008074 	movhi	r4,513
 2000bf0:	2108ad04 	addi	r4,r4,8884
 2000bf4:	100b883a 	mov	r5,r2
 2000bf8:	20011d00 	call	20011d0 <scanf>
		e_bool = e_checker(e, phi);
 2000bfc:	e0bffd17 	ldw	r2,-12(fp)
 2000c00:	1009883a 	mov	r4,r2
 2000c04:	e17ff817 	ldw	r5,-32(fp)
 2000c08:	2000f000 	call	2000f00 <e_checker>
 2000c0c:	e0bff415 	stw	r2,-48(fp)
		if(e_bool == 0)
 2000c10:	e0bff417 	ldw	r2,-48(fp)
 2000c14:	1000031e 	bne	r2,zero,2000c24 <software_encrypt+0x178>
			printf("Your e number is not valid.\n");
 2000c18:	01008074 	movhi	r4,513
 2000c1c:	2109a904 	addi	r4,r4,9892
 2000c20:	20011bc0 	call	20011bc <puts>
	e_bool = 0;
	int n, phi, e, s, d;
	n = p*q;
	phi = (p-1)*(q-1); //totient
	printf("Phi value = %d\n", phi);
	while(e_bool == 0){
 2000c24:	e0bff417 	ldw	r2,-48(fp)
 2000c28:	103fec26 	beq	r2,zero,2000bdc <__alt_data_end+0xff000bdc>
		scanf("%d", &e);
		e_bool = e_checker(e, phi);
		if(e_bool == 0)
			printf("Your e number is not valid.\n");
	}
	d = 1;
 2000c2c:	00800044 	movi	r2,1
 2000c30:	e0bff615 	stw	r2,-40(fp)
	s = (d * e) % phi;
 2000c34:	e0bffd17 	ldw	r2,-12(fp)
 2000c38:	1009883a 	mov	r4,r2
 2000c3c:	e17ff617 	ldw	r5,-40(fp)
 2000c40:	20010a80 	call	20010a8 <__mulsi3>
 2000c44:	1009883a 	mov	r4,r2
 2000c48:	e17ff817 	ldw	r5,-32(fp)
 2000c4c:	200103c0 	call	200103c <__modsi3>
 2000c50:	e0bff515 	stw	r2,-44(fp)
	while(s != 1){
 2000c54:	00000b06 	br	2000c84 <software_encrypt+0x1d8>
		s = (d * e) % phi;
 2000c58:	e0bffd17 	ldw	r2,-12(fp)
 2000c5c:	1009883a 	mov	r4,r2
 2000c60:	e17ff617 	ldw	r5,-40(fp)
 2000c64:	20010a80 	call	20010a8 <__mulsi3>
 2000c68:	1009883a 	mov	r4,r2
 2000c6c:	e17ff817 	ldw	r5,-32(fp)
 2000c70:	200103c0 	call	200103c <__modsi3>
 2000c74:	e0bff515 	stw	r2,-44(fp)
		d++;
 2000c78:	e0bff617 	ldw	r2,-40(fp)
 2000c7c:	10800044 	addi	r2,r2,1
 2000c80:	e0bff615 	stw	r2,-40(fp)
		if(e_bool == 0)
			printf("Your e number is not valid.\n");
	}
	d = 1;
	s = (d * e) % phi;
	while(s != 1){
 2000c84:	e0bff517 	ldw	r2,-44(fp)
 2000c88:	10800058 	cmpnei	r2,r2,1
 2000c8c:	103ff21e 	bne	r2,zero,2000c58 <__alt_data_end+0xff000c58>
		s = (d * e) % phi;
		d++;
	}
	d--;
 2000c90:	e0bff617 	ldw	r2,-40(fp)
 2000c94:	10bfffc4 	addi	r2,r2,-1
 2000c98:	e0bff615 	stw	r2,-40(fp)

	printf("Public Key: %d %d\n", e, n);
 2000c9c:	e0bffd17 	ldw	r2,-12(fp)
 2000ca0:	01008074 	movhi	r4,513
 2000ca4:	2109b004 	addi	r4,r4,9920
 2000ca8:	100b883a 	mov	r5,r2
 2000cac:	e1bff717 	ldw	r6,-36(fp)
 2000cb0:	20010fc0 	call	20010fc <printf>
	printf("Private key: %d %d\n", d, n);
 2000cb4:	01008074 	movhi	r4,513
 2000cb8:	2109b504 	addi	r4,r4,9940
 2000cbc:	e17ff617 	ldw	r5,-40(fp)
 2000cc0:	e1bff717 	ldw	r6,-36(fp)
 2000cc4:	20010fc0 	call	20010fc <printf>

	//unsigned char msg[100];
	int M, C, plaintext, ciphertext;
	printf("Enter plaintext: ");
 2000cc8:	01008074 	movhi	r4,513
 2000ccc:	2109ba04 	addi	r4,r4,9960
 2000cd0:	20010fc0 	call	20010fc <printf>
	scanf("%d", &M);
 2000cd4:	e0bffe04 	addi	r2,fp,-8
 2000cd8:	01008074 	movhi	r4,513
 2000cdc:	2108ad04 	addi	r4,r4,8884
 2000ce0:	100b883a 	mov	r5,r2
 2000ce4:	20011d00 	call	20011d0 <scanf>
	ciphertext = encrypt(M, e, n);
 2000ce8:	e0fffe17 	ldw	r3,-8(fp)
 2000cec:	e0bffd17 	ldw	r2,-12(fp)
 2000cf0:	1809883a 	mov	r4,r3
 2000cf4:	100b883a 	mov	r5,r2
 2000cf8:	e1bff717 	ldw	r6,-36(fp)
 2000cfc:	2000d700 	call	2000d70 <encrypt>
 2000d00:	e0bff915 	stw	r2,-28(fp)
	printf("Encrypted: %d\n", ciphertext);
 2000d04:	01008074 	movhi	r4,513
 2000d08:	2109bf04 	addi	r4,r4,9980
 2000d0c:	e17ff917 	ldw	r5,-28(fp)
 2000d10:	20010fc0 	call	20010fc <printf>
	printf("Enter ciphertext: ");
 2000d14:	01008074 	movhi	r4,513
 2000d18:	2109c304 	addi	r4,r4,9996
 2000d1c:	20010fc0 	call	20010fc <printf>
	scanf("%d", &C);
 2000d20:	e0bfff04 	addi	r2,fp,-4
 2000d24:	01008074 	movhi	r4,513
 2000d28:	2108ad04 	addi	r4,r4,8884
 2000d2c:	100b883a 	mov	r5,r2
 2000d30:	20011d00 	call	20011d0 <scanf>
	plaintext = decrypt(C, d, n);
 2000d34:	e0bfff17 	ldw	r2,-4(fp)
 2000d38:	1009883a 	mov	r4,r2
 2000d3c:	e17ff617 	ldw	r5,-40(fp)
 2000d40:	e1bff717 	ldw	r6,-36(fp)
 2000d44:	2000dfc0 	call	2000dfc <decrypt>
 2000d48:	e0bffa15 	stw	r2,-24(fp)
	printf("Decrypted: %d\n", plaintext);
 2000d4c:	01008074 	movhi	r4,513
 2000d50:	2109c804 	addi	r4,r4,10016
 2000d54:	e17ffa17 	ldw	r5,-24(fp)
 2000d58:	20010fc0 	call	20010fc <printf>
}
 2000d5c:	e037883a 	mov	sp,fp
 2000d60:	dfc00117 	ldw	ra,4(sp)
 2000d64:	df000017 	ldw	fp,0(sp)
 2000d68:	dec00204 	addi	sp,sp,8
 2000d6c:	f800283a 	ret

02000d70 <encrypt>:
int encrypt(int M, int e, int n){
 2000d70:	defff904 	addi	sp,sp,-28
 2000d74:	dfc00615 	stw	ra,24(sp)
 2000d78:	df000515 	stw	fp,20(sp)
 2000d7c:	df000504 	addi	fp,sp,20
 2000d80:	e13ffd15 	stw	r4,-12(fp)
 2000d84:	e17ffe15 	stw	r5,-8(fp)
 2000d88:	e1bfff15 	stw	r6,-4(fp)
	int i;
	int C;
	C = 1;
 2000d8c:	00800044 	movi	r2,1
 2000d90:	e0bffc15 	stw	r2,-16(fp)
	for(i = 0; i < e; i++){
 2000d94:	e03ffb15 	stw	zero,-20(fp)
 2000d98:	00000a06 	br	2000dc4 <encrypt+0x54>
		C = (C*M)%n;
 2000d9c:	e13ffc17 	ldw	r4,-16(fp)
 2000da0:	e17ffd17 	ldw	r5,-12(fp)
 2000da4:	20010a80 	call	20010a8 <__mulsi3>
 2000da8:	1009883a 	mov	r4,r2
 2000dac:	e17fff17 	ldw	r5,-4(fp)
 2000db0:	200103c0 	call	200103c <__modsi3>
 2000db4:	e0bffc15 	stw	r2,-16(fp)
}
int encrypt(int M, int e, int n){
	int i;
	int C;
	C = 1;
	for(i = 0; i < e; i++){
 2000db8:	e0bffb17 	ldw	r2,-20(fp)
 2000dbc:	10800044 	addi	r2,r2,1
 2000dc0:	e0bffb15 	stw	r2,-20(fp)
 2000dc4:	e0fffb17 	ldw	r3,-20(fp)
 2000dc8:	e0bffe17 	ldw	r2,-8(fp)
 2000dcc:	18bff316 	blt	r3,r2,2000d9c <__alt_data_end+0xff000d9c>
		C = (C*M)%n;
	}
	C = C % n;
 2000dd0:	e0bffc17 	ldw	r2,-16(fp)
 2000dd4:	1009883a 	mov	r4,r2
 2000dd8:	e17fff17 	ldw	r5,-4(fp)
 2000ddc:	200103c0 	call	200103c <__modsi3>
 2000de0:	e0bffc15 	stw	r2,-16(fp)
	return C;
 2000de4:	e0bffc17 	ldw	r2,-16(fp)
}
 2000de8:	e037883a 	mov	sp,fp
 2000dec:	dfc00117 	ldw	ra,4(sp)
 2000df0:	df000017 	ldw	fp,0(sp)
 2000df4:	dec00204 	addi	sp,sp,8
 2000df8:	f800283a 	ret

02000dfc <decrypt>:
int decrypt(int C, int d, int n){
 2000dfc:	defff904 	addi	sp,sp,-28
 2000e00:	dfc00615 	stw	ra,24(sp)
 2000e04:	df000515 	stw	fp,20(sp)
 2000e08:	df000504 	addi	fp,sp,20
 2000e0c:	e13ffd15 	stw	r4,-12(fp)
 2000e10:	e17ffe15 	stw	r5,-8(fp)
 2000e14:	e1bfff15 	stw	r6,-4(fp)
	int i;
	int M;
	M = 1;
 2000e18:	00800044 	movi	r2,1
 2000e1c:	e0bffc15 	stw	r2,-16(fp)
	for(i = 0; i < d; i++){
 2000e20:	e03ffb15 	stw	zero,-20(fp)
 2000e24:	00000a06 	br	2000e50 <decrypt+0x54>
		M = (M*C)%n;
 2000e28:	e13ffc17 	ldw	r4,-16(fp)
 2000e2c:	e17ffd17 	ldw	r5,-12(fp)
 2000e30:	20010a80 	call	20010a8 <__mulsi3>
 2000e34:	1009883a 	mov	r4,r2
 2000e38:	e17fff17 	ldw	r5,-4(fp)
 2000e3c:	200103c0 	call	200103c <__modsi3>
 2000e40:	e0bffc15 	stw	r2,-16(fp)
}
int decrypt(int C, int d, int n){
	int i;
	int M;
	M = 1;
	for(i = 0; i < d; i++){
 2000e44:	e0bffb17 	ldw	r2,-20(fp)
 2000e48:	10800044 	addi	r2,r2,1
 2000e4c:	e0bffb15 	stw	r2,-20(fp)
 2000e50:	e0fffb17 	ldw	r3,-20(fp)
 2000e54:	e0bffe17 	ldw	r2,-8(fp)
 2000e58:	18bff316 	blt	r3,r2,2000e28 <__alt_data_end+0xff000e28>
		M = (M*C)%n;
	}
	M = M % n;
 2000e5c:	e0bffc17 	ldw	r2,-16(fp)
 2000e60:	1009883a 	mov	r4,r2
 2000e64:	e17fff17 	ldw	r5,-4(fp)
 2000e68:	200103c0 	call	200103c <__modsi3>
 2000e6c:	e0bffc15 	stw	r2,-16(fp)
	return M;
 2000e70:	e0bffc17 	ldw	r2,-16(fp)

}
 2000e74:	e037883a 	mov	sp,fp
 2000e78:	dfc00117 	ldw	ra,4(sp)
 2000e7c:	df000017 	ldw	fp,0(sp)
 2000e80:	dec00204 	addi	sp,sp,8
 2000e84:	f800283a 	ret

02000e88 <prime_checker>:
/*return 0 if not prime, 1 if prime*/
int prime_checker(int number) {
 2000e88:	defffc04 	addi	sp,sp,-16
 2000e8c:	dfc00315 	stw	ra,12(sp)
 2000e90:	df000215 	stw	fp,8(sp)
 2000e94:	df000204 	addi	fp,sp,8
 2000e98:	e13fff15 	stw	r4,-4(fp)
	int i;
	for(i = 2; i < number; i++) {
 2000e9c:	00800084 	movi	r2,2
 2000ea0:	e0bffe15 	stw	r2,-8(fp)
 2000ea4:	00000d06 	br	2000edc <prime_checker+0x54>
		if(number % i == 0 && i != number)
 2000ea8:	e0bfff17 	ldw	r2,-4(fp)
 2000eac:	1009883a 	mov	r4,r2
 2000eb0:	e17ffe17 	ldw	r5,-8(fp)
 2000eb4:	200103c0 	call	200103c <__modsi3>
 2000eb8:	1000051e 	bne	r2,zero,2000ed0 <prime_checker+0x48>
 2000ebc:	e0fffe17 	ldw	r3,-8(fp)
 2000ec0:	e0bfff17 	ldw	r2,-4(fp)
 2000ec4:	18800226 	beq	r3,r2,2000ed0 <prime_checker+0x48>
		return 0;
 2000ec8:	0005883a 	mov	r2,zero
 2000ecc:	00000706 	br	2000eec <prime_checker+0x64>

}
/*return 0 if not prime, 1 if prime*/
int prime_checker(int number) {
	int i;
	for(i = 2; i < number; i++) {
 2000ed0:	e0bffe17 	ldw	r2,-8(fp)
 2000ed4:	10800044 	addi	r2,r2,1
 2000ed8:	e0bffe15 	stw	r2,-8(fp)
 2000edc:	e0fffe17 	ldw	r3,-8(fp)
 2000ee0:	e0bfff17 	ldw	r2,-4(fp)
 2000ee4:	18bff016 	blt	r3,r2,2000ea8 <__alt_data_end+0xff000ea8>
		if(number % i == 0 && i != number)
		return 0;
	}
	return 1;
 2000ee8:	00800044 	movi	r2,1
}
 2000eec:	e037883a 	mov	sp,fp
 2000ef0:	dfc00117 	ldw	ra,4(sp)
 2000ef4:	df000017 	ldw	fp,0(sp)
 2000ef8:	dec00204 	addi	sp,sp,8
 2000efc:	f800283a 	ret

02000f00 <e_checker>:
int e_checker(int e, int phi){
 2000f00:	defffa04 	addi	sp,sp,-24
 2000f04:	dfc00515 	stw	ra,20(sp)
 2000f08:	df000415 	stw	fp,16(sp)
 2000f0c:	df000404 	addi	fp,sp,16
 2000f10:	e13ffe15 	stw	r4,-8(fp)
 2000f14:	e17fff15 	stw	r5,-4(fp)
	int prime, lessthan;
	prime = prime_checker(e);
 2000f18:	e13ffe17 	ldw	r4,-8(fp)
 2000f1c:	2000e880 	call	2000e88 <prime_checker>
 2000f20:	e0bffd15 	stw	r2,-12(fp)
	if(e < phi)
 2000f24:	e0fffe17 	ldw	r3,-8(fp)
 2000f28:	e0bfff17 	ldw	r2,-4(fp)
 2000f2c:	1880030e 	bge	r3,r2,2000f3c <e_checker+0x3c>
		lessthan = 1;
 2000f30:	00800044 	movi	r2,1
 2000f34:	e0bffc15 	stw	r2,-16(fp)
 2000f38:	00000106 	br	2000f40 <e_checker+0x40>
	else
		lessthan = 0;
 2000f3c:	e03ffc15 	stw	zero,-16(fp)

	if(lessthan == 1 && prime == 1)
 2000f40:	e0bffc17 	ldw	r2,-16(fp)
 2000f44:	10800058 	cmpnei	r2,r2,1
 2000f48:	1000051e 	bne	r2,zero,2000f60 <e_checker+0x60>
 2000f4c:	e0bffd17 	ldw	r2,-12(fp)
 2000f50:	10800058 	cmpnei	r2,r2,1
 2000f54:	1000021e 	bne	r2,zero,2000f60 <e_checker+0x60>
		return 1;
 2000f58:	00800044 	movi	r2,1
 2000f5c:	00000106 	br	2000f64 <e_checker+0x64>
	else
		return 0;
 2000f60:	0005883a 	mov	r2,zero
}
 2000f64:	e037883a 	mov	sp,fp
 2000f68:	dfc00117 	ldw	ra,4(sp)
 2000f6c:	df000017 	ldw	fp,0(sp)
 2000f70:	dec00204 	addi	sp,sp,8
 2000f74:	f800283a 	ret

02000f78 <udivmodsi4>:
 2000f78:	2005883a 	mov	r2,r4
 2000f7c:	2900182e 	bgeu	r5,r4,2000fe0 <udivmodsi4+0x68>
 2000f80:	28001716 	blt	r5,zero,2000fe0 <udivmodsi4+0x68>
 2000f84:	01000804 	movi	r4,32
 2000f88:	00c00044 	movi	r3,1
 2000f8c:	00000206 	br	2000f98 <udivmodsi4+0x20>
 2000f90:	20001126 	beq	r4,zero,2000fd8 <udivmodsi4+0x60>
 2000f94:	28000516 	blt	r5,zero,2000fac <udivmodsi4+0x34>
 2000f98:	294b883a 	add	r5,r5,r5
 2000f9c:	213fffc4 	addi	r4,r4,-1
 2000fa0:	18c7883a 	add	r3,r3,r3
 2000fa4:	28bffa36 	bltu	r5,r2,2000f90 <__alt_data_end+0xff000f90>
 2000fa8:	18000b26 	beq	r3,zero,2000fd8 <udivmodsi4+0x60>
 2000fac:	0009883a 	mov	r4,zero
 2000fb0:	11400236 	bltu	r2,r5,2000fbc <udivmodsi4+0x44>
 2000fb4:	1145c83a 	sub	r2,r2,r5
 2000fb8:	20c8b03a 	or	r4,r4,r3
 2000fbc:	1806d07a 	srli	r3,r3,1
 2000fc0:	280ad07a 	srli	r5,r5,1
 2000fc4:	183ffa1e 	bne	r3,zero,2000fb0 <__alt_data_end+0xff000fb0>
 2000fc8:	3000021e 	bne	r6,zero,2000fd4 <udivmodsi4+0x5c>
 2000fcc:	2005883a 	mov	r2,r4
 2000fd0:	f800283a 	ret
 2000fd4:	f800283a 	ret
 2000fd8:	0009883a 	mov	r4,zero
 2000fdc:	003ffa06 	br	2000fc8 <__alt_data_end+0xff000fc8>
 2000fe0:	00c00044 	movi	r3,1
 2000fe4:	0009883a 	mov	r4,zero
 2000fe8:	003ff106 	br	2000fb0 <__alt_data_end+0xff000fb0>

02000fec <__divsi3>:
 2000fec:	defffe04 	addi	sp,sp,-8
 2000ff0:	dfc00115 	stw	ra,4(sp)
 2000ff4:	dc000015 	stw	r16,0(sp)
 2000ff8:	20000a16 	blt	r4,zero,2001024 <__divsi3+0x38>
 2000ffc:	0021883a 	mov	r16,zero
 2001000:	28000b16 	blt	r5,zero,2001030 <__divsi3+0x44>
 2001004:	000d883a 	mov	r6,zero
 2001008:	2000f780 	call	2000f78 <udivmodsi4>
 200100c:	80000126 	beq	r16,zero,2001014 <__divsi3+0x28>
 2001010:	0085c83a 	sub	r2,zero,r2
 2001014:	dfc00117 	ldw	ra,4(sp)
 2001018:	dc000017 	ldw	r16,0(sp)
 200101c:	dec00204 	addi	sp,sp,8
 2001020:	f800283a 	ret
 2001024:	0109c83a 	sub	r4,zero,r4
 2001028:	04000044 	movi	r16,1
 200102c:	283ff50e 	bge	r5,zero,2001004 <__alt_data_end+0xff001004>
 2001030:	014bc83a 	sub	r5,zero,r5
 2001034:	8400005c 	xori	r16,r16,1
 2001038:	003ff206 	br	2001004 <__alt_data_end+0xff001004>

0200103c <__modsi3>:
 200103c:	deffff04 	addi	sp,sp,-4
 2001040:	dfc00015 	stw	ra,0(sp)
 2001044:	20000516 	blt	r4,zero,200105c <__modsi3+0x20>
 2001048:	28000c16 	blt	r5,zero,200107c <__modsi3+0x40>
 200104c:	01800044 	movi	r6,1
 2001050:	dfc00017 	ldw	ra,0(sp)
 2001054:	dec00104 	addi	sp,sp,4
 2001058:	2000f781 	jmpi	2000f78 <udivmodsi4>
 200105c:	0109c83a 	sub	r4,zero,r4
 2001060:	28000b16 	blt	r5,zero,2001090 <__modsi3+0x54>
 2001064:	01800044 	movi	r6,1
 2001068:	2000f780 	call	2000f78 <udivmodsi4>
 200106c:	0085c83a 	sub	r2,zero,r2
 2001070:	dfc00017 	ldw	ra,0(sp)
 2001074:	dec00104 	addi	sp,sp,4
 2001078:	f800283a 	ret
 200107c:	014bc83a 	sub	r5,zero,r5
 2001080:	01800044 	movi	r6,1
 2001084:	dfc00017 	ldw	ra,0(sp)
 2001088:	dec00104 	addi	sp,sp,4
 200108c:	2000f781 	jmpi	2000f78 <udivmodsi4>
 2001090:	014bc83a 	sub	r5,zero,r5
 2001094:	003ff306 	br	2001064 <__alt_data_end+0xff001064>

02001098 <__udivsi3>:
 2001098:	000d883a 	mov	r6,zero
 200109c:	2000f781 	jmpi	2000f78 <udivmodsi4>

020010a0 <__umodsi3>:
 20010a0:	01800044 	movi	r6,1
 20010a4:	2000f781 	jmpi	2000f78 <udivmodsi4>

020010a8 <__mulsi3>:
 20010a8:	0005883a 	mov	r2,zero
 20010ac:	20000726 	beq	r4,zero,20010cc <__mulsi3+0x24>
 20010b0:	20c0004c 	andi	r3,r4,1
 20010b4:	2008d07a 	srli	r4,r4,1
 20010b8:	18000126 	beq	r3,zero,20010c0 <__mulsi3+0x18>
 20010bc:	1145883a 	add	r2,r2,r5
 20010c0:	294b883a 	add	r5,r5,r5
 20010c4:	203ffa1e 	bne	r4,zero,20010b0 <__alt_data_end+0xff0010b0>
 20010c8:	f800283a 	ret
 20010cc:	f800283a 	ret

020010d0 <_printf_r>:
 20010d0:	defffd04 	addi	sp,sp,-12
 20010d4:	dfc00015 	stw	ra,0(sp)
 20010d8:	d9800115 	stw	r6,4(sp)
 20010dc:	d9c00215 	stw	r7,8(sp)
 20010e0:	280d883a 	mov	r6,r5
 20010e4:	21400217 	ldw	r5,8(r4)
 20010e8:	d9c00104 	addi	r7,sp,4
 20010ec:	20012fc0 	call	20012fc <___vfprintf_internal_r>
 20010f0:	dfc00017 	ldw	ra,0(sp)
 20010f4:	dec00304 	addi	sp,sp,12
 20010f8:	f800283a 	ret

020010fc <printf>:
 20010fc:	defffc04 	addi	sp,sp,-16
 2001100:	dfc00015 	stw	ra,0(sp)
 2001104:	d9400115 	stw	r5,4(sp)
 2001108:	d9800215 	stw	r6,8(sp)
 200110c:	d9c00315 	stw	r7,12(sp)
 2001110:	00808074 	movhi	r2,513
 2001114:	1091e904 	addi	r2,r2,18340
 2001118:	10800017 	ldw	r2,0(r2)
 200111c:	200b883a 	mov	r5,r4
 2001120:	d9800104 	addi	r6,sp,4
 2001124:	11000217 	ldw	r4,8(r2)
 2001128:	20031780 	call	2003178 <__vfprintf_internal>
 200112c:	dfc00017 	ldw	ra,0(sp)
 2001130:	dec00404 	addi	sp,sp,16
 2001134:	f800283a 	ret

02001138 <_puts_r>:
 2001138:	defff604 	addi	sp,sp,-40
 200113c:	dc400815 	stw	r17,32(sp)
 2001140:	2023883a 	mov	r17,r4
 2001144:	2809883a 	mov	r4,r5
 2001148:	dc000715 	stw	r16,28(sp)
 200114c:	dfc00915 	stw	ra,36(sp)
 2001150:	2821883a 	mov	r16,r5
 2001154:	200123c0 	call	200123c <strlen>
 2001158:	10c00044 	addi	r3,r2,1
 200115c:	d8800115 	stw	r2,4(sp)
 2001160:	89400217 	ldw	r5,8(r17)
 2001164:	00808074 	movhi	r2,513
 2001168:	1089cc04 	addi	r2,r2,10032
 200116c:	d8800215 	stw	r2,8(sp)
 2001170:	00800044 	movi	r2,1
 2001174:	d8800315 	stw	r2,12(sp)
 2001178:	8809883a 	mov	r4,r17
 200117c:	00800084 	movi	r2,2
 2001180:	d9800404 	addi	r6,sp,16
 2001184:	dc000015 	stw	r16,0(sp)
 2001188:	d8c00615 	stw	r3,24(sp)
 200118c:	dec00415 	stw	sp,16(sp)
 2001190:	d8800515 	stw	r2,20(sp)
 2001194:	2006e7c0 	call	2006e7c <__sfvwrite_r>
 2001198:	1000061e 	bne	r2,zero,20011b4 <_puts_r+0x7c>
 200119c:	00800284 	movi	r2,10
 20011a0:	dfc00917 	ldw	ra,36(sp)
 20011a4:	dc400817 	ldw	r17,32(sp)
 20011a8:	dc000717 	ldw	r16,28(sp)
 20011ac:	dec00a04 	addi	sp,sp,40
 20011b0:	f800283a 	ret
 20011b4:	00bfffc4 	movi	r2,-1
 20011b8:	003ff906 	br	20011a0 <__alt_data_end+0xff0011a0>

020011bc <puts>:
 20011bc:	00808074 	movhi	r2,513
 20011c0:	1091e904 	addi	r2,r2,18340
 20011c4:	200b883a 	mov	r5,r4
 20011c8:	11000017 	ldw	r4,0(r2)
 20011cc:	20011381 	jmpi	2001138 <_puts_r>

020011d0 <scanf>:
 20011d0:	defffc04 	addi	sp,sp,-16
 20011d4:	dfc00015 	stw	ra,0(sp)
 20011d8:	d9400115 	stw	r5,4(sp)
 20011dc:	d9800215 	stw	r6,8(sp)
 20011e0:	d9c00315 	stw	r7,12(sp)
 20011e4:	00808074 	movhi	r2,513
 20011e8:	1091e904 	addi	r2,r2,18340
 20011ec:	10800017 	ldw	r2,0(r2)
 20011f0:	200d883a 	mov	r6,r4
 20011f4:	d9c00104 	addi	r7,sp,4
 20011f8:	11400117 	ldw	r5,4(r2)
 20011fc:	1009883a 	mov	r4,r2
 2001200:	200319c0 	call	200319c <__svfscanf_r>
 2001204:	dfc00017 	ldw	ra,0(sp)
 2001208:	dec00404 	addi	sp,sp,16
 200120c:	f800283a 	ret

02001210 <_scanf_r>:
 2001210:	defffd04 	addi	sp,sp,-12
 2001214:	dfc00015 	stw	ra,0(sp)
 2001218:	d9800115 	stw	r6,4(sp)
 200121c:	d9c00215 	stw	r7,8(sp)
 2001220:	280d883a 	mov	r6,r5
 2001224:	21400117 	ldw	r5,4(r4)
 2001228:	d9c00104 	addi	r7,sp,4
 200122c:	200319c0 	call	200319c <__svfscanf_r>
 2001230:	dfc00017 	ldw	ra,0(sp)
 2001234:	dec00304 	addi	sp,sp,12
 2001238:	f800283a 	ret

0200123c <strlen>:
 200123c:	208000cc 	andi	r2,r4,3
 2001240:	10001f1e 	bne	r2,zero,20012c0 <strlen+0x84>
 2001244:	20800017 	ldw	r2,0(r4)
 2001248:	01ffbff4 	movhi	r7,65279
 200124c:	39ffbfc4 	addi	r7,r7,-257
 2001250:	01a02074 	movhi	r6,32897
 2001254:	31a02004 	addi	r6,r6,-32640
 2001258:	11c7883a 	add	r3,r2,r7
 200125c:	0084303a 	nor	r2,zero,r2
 2001260:	1886703a 	and	r3,r3,r2
 2001264:	1986703a 	and	r3,r3,r6
 2001268:	2005883a 	mov	r2,r4
 200126c:	1800101e 	bne	r3,zero,20012b0 <strlen+0x74>
 2001270:	10800104 	addi	r2,r2,4
 2001274:	10c00017 	ldw	r3,0(r2)
 2001278:	19cb883a 	add	r5,r3,r7
 200127c:	00c6303a 	nor	r3,zero,r3
 2001280:	28c6703a 	and	r3,r5,r3
 2001284:	1986703a 	and	r3,r3,r6
 2001288:	1800091e 	bne	r3,zero,20012b0 <strlen+0x74>
 200128c:	10800104 	addi	r2,r2,4
 2001290:	10c00017 	ldw	r3,0(r2)
 2001294:	19cb883a 	add	r5,r3,r7
 2001298:	00c6303a 	nor	r3,zero,r3
 200129c:	28c6703a 	and	r3,r5,r3
 20012a0:	1986703a 	and	r3,r3,r6
 20012a4:	183ff226 	beq	r3,zero,2001270 <__alt_data_end+0xff001270>
 20012a8:	00000106 	br	20012b0 <strlen+0x74>
 20012ac:	10800044 	addi	r2,r2,1
 20012b0:	10c00007 	ldb	r3,0(r2)
 20012b4:	183ffd1e 	bne	r3,zero,20012ac <__alt_data_end+0xff0012ac>
 20012b8:	1105c83a 	sub	r2,r2,r4
 20012bc:	f800283a 	ret
 20012c0:	2005883a 	mov	r2,r4
 20012c4:	003ffa06 	br	20012b0 <__alt_data_end+0xff0012b0>

020012c8 <__sprint_r>:
 20012c8:	30800217 	ldw	r2,8(r6)
 20012cc:	defffe04 	addi	sp,sp,-8
 20012d0:	dc000015 	stw	r16,0(sp)
 20012d4:	dfc00115 	stw	ra,4(sp)
 20012d8:	3021883a 	mov	r16,r6
 20012dc:	10000226 	beq	r2,zero,20012e8 <__sprint_r+0x20>
 20012e0:	2006e7c0 	call	2006e7c <__sfvwrite_r>
 20012e4:	80000215 	stw	zero,8(r16)
 20012e8:	80000115 	stw	zero,4(r16)
 20012ec:	dfc00117 	ldw	ra,4(sp)
 20012f0:	dc000017 	ldw	r16,0(sp)
 20012f4:	dec00204 	addi	sp,sp,8
 20012f8:	f800283a 	ret

020012fc <___vfprintf_internal_r>:
 20012fc:	defeb904 	addi	sp,sp,-1308
 2001300:	dc013d15 	stw	r16,1268(sp)
 2001304:	d9013015 	stw	r4,1216(sp)
 2001308:	dfc14615 	stw	ra,1304(sp)
 200130c:	df014515 	stw	fp,1300(sp)
 2001310:	ddc14415 	stw	r23,1296(sp)
 2001314:	dd814315 	stw	r22,1292(sp)
 2001318:	dd414215 	stw	r21,1288(sp)
 200131c:	dd014115 	stw	r20,1284(sp)
 2001320:	dcc14015 	stw	r19,1280(sp)
 2001324:	dc813f15 	stw	r18,1276(sp)
 2001328:	dc413e15 	stw	r17,1272(sp)
 200132c:	d9412915 	stw	r5,1188(sp)
 2001330:	3021883a 	mov	r16,r6
 2001334:	d9c12d15 	stw	r7,1204(sp)
 2001338:	20075a00 	call	20075a0 <_localeconv_r>
 200133c:	10800017 	ldw	r2,0(r2)
 2001340:	d9013017 	ldw	r4,1216(sp)
 2001344:	d8013315 	stw	zero,1228(sp)
 2001348:	d8813715 	stw	r2,1244(sp)
 200134c:	d8013415 	stw	zero,1232(sp)
 2001350:	20000226 	beq	r4,zero,200135c <___vfprintf_internal_r+0x60>
 2001354:	20800e17 	ldw	r2,56(r4)
 2001358:	10014b26 	beq	r2,zero,2001888 <___vfprintf_internal_r+0x58c>
 200135c:	d8c12917 	ldw	r3,1188(sp)
 2001360:	1880030b 	ldhu	r2,12(r3)
 2001364:	10c0020c 	andi	r3,r2,8
 2001368:	18ffffcc 	andi	r3,r3,65535
 200136c:	18e0001c 	xori	r3,r3,32768
 2001370:	18e00004 	addi	r3,r3,-32768
 2001374:	1800ed26 	beq	r3,zero,200172c <___vfprintf_internal_r+0x430>
 2001378:	d9012917 	ldw	r4,1188(sp)
 200137c:	20c00417 	ldw	r3,16(r4)
 2001380:	1800ea26 	beq	r3,zero,200172c <___vfprintf_internal_r+0x430>
 2001384:	1100068c 	andi	r4,r2,26
 2001388:	00c00284 	movi	r3,10
 200138c:	20c0f026 	beq	r4,r3,2001750 <___vfprintf_internal_r+0x454>
 2001390:	d9010dc4 	addi	r4,sp,1079
 2001394:	d8810e04 	addi	r2,sp,1080
 2001398:	dc413017 	ldw	r17,1216(sp)
 200139c:	d8c00404 	addi	r3,sp,16
 20013a0:	d9012615 	stw	r4,1176(sp)
 20013a4:	1109c83a 	sub	r4,r2,r4
 20013a8:	d8812715 	stw	r2,1180(sp)
 20013ac:	d8c11b15 	stw	r3,1132(sp)
 20013b0:	d8011d15 	stw	zero,1140(sp)
 20013b4:	d8011c15 	stw	zero,1136(sp)
 20013b8:	802b883a 	mov	r21,r16
 20013bc:	d8013215 	stw	zero,1224(sp)
 20013c0:	d8013615 	stw	zero,1240(sp)
 20013c4:	d8013515 	stw	zero,1236(sp)
 20013c8:	d8012c15 	stw	zero,1200(sp)
 20013cc:	1813883a 	mov	r9,r3
 20013d0:	d9013915 	stw	r4,1252(sp)
 20013d4:	a8800007 	ldb	r2,0(r21)
 20013d8:	1002f326 	beq	r2,zero,2001fa8 <___vfprintf_internal_r+0xcac>
 20013dc:	00c00944 	movi	r3,37
 20013e0:	a825883a 	mov	r18,r21
 20013e4:	10c0021e 	bne	r2,r3,20013f0 <___vfprintf_internal_r+0xf4>
 20013e8:	00001406 	br	200143c <___vfprintf_internal_r+0x140>
 20013ec:	10c00326 	beq	r2,r3,20013fc <___vfprintf_internal_r+0x100>
 20013f0:	94800044 	addi	r18,r18,1
 20013f4:	90800007 	ldb	r2,0(r18)
 20013f8:	103ffc1e 	bne	r2,zero,20013ec <__alt_data_end+0xff0013ec>
 20013fc:	9561c83a 	sub	r16,r18,r21
 2001400:	80000e26 	beq	r16,zero,200143c <___vfprintf_internal_r+0x140>
 2001404:	da011d17 	ldw	r8,1140(sp)
 2001408:	d8c11c17 	ldw	r3,1136(sp)
 200140c:	4d400015 	stw	r21,0(r9)
 2001410:	4c000115 	stw	r16,4(r9)
 2001414:	4411883a 	add	r8,r8,r16
 2001418:	18c00044 	addi	r3,r3,1
 200141c:	da011d15 	stw	r8,1140(sp)
 2001420:	d8c11c15 	stw	r3,1136(sp)
 2001424:	008001c4 	movi	r2,7
 2001428:	10c11016 	blt	r2,r3,200186c <___vfprintf_internal_r+0x570>
 200142c:	4a400204 	addi	r9,r9,8
 2001430:	d8812c17 	ldw	r2,1200(sp)
 2001434:	1405883a 	add	r2,r2,r16
 2001438:	d8812c15 	stw	r2,1200(sp)
 200143c:	90800007 	ldb	r2,0(r18)
 2001440:	1000ee26 	beq	r2,zero,20017fc <___vfprintf_internal_r+0x500>
 2001444:	95400044 	addi	r21,r18,1
 2001448:	94800047 	ldb	r18,1(r18)
 200144c:	073fffc4 	movi	fp,-1
 2001450:	e007883a 	mov	r3,fp
 2001454:	d8012585 	stb	zero,1174(sp)
 2001458:	d8012e15 	stw	zero,1208(sp)
 200145c:	0021883a 	mov	r16,zero
 2001460:	05001604 	movi	r20,88
 2001464:	04c00244 	movi	r19,9
 2001468:	4839883a 	mov	fp,r9
 200146c:	ad400044 	addi	r21,r21,1
 2001470:	90bff804 	addi	r2,r18,-32
 2001474:	a080462e 	bgeu	r20,r2,2001590 <___vfprintf_internal_r+0x294>
 2001478:	e013883a 	mov	r9,fp
 200147c:	9000df26 	beq	r18,zero,20017fc <___vfprintf_internal_r+0x500>
 2001480:	00c00044 	movi	r3,1
 2001484:	d8c12815 	stw	r3,1184(sp)
 2001488:	dc810405 	stb	r18,1040(sp)
 200148c:	d8012585 	stb	zero,1174(sp)
 2001490:	d8c12b15 	stw	r3,1196(sp)
 2001494:	dcc10404 	addi	r19,sp,1040
 2001498:	d8013115 	stw	zero,1220(sp)
 200149c:	80c0008c 	andi	r3,r16,2
 20014a0:	d8c12a15 	stw	r3,1192(sp)
 20014a4:	18000326 	beq	r3,zero,20014b4 <___vfprintf_internal_r+0x1b8>
 20014a8:	d8c12817 	ldw	r3,1184(sp)
 20014ac:	18c00084 	addi	r3,r3,2
 20014b0:	d8c12815 	stw	r3,1184(sp)
 20014b4:	80c0210c 	andi	r3,r16,132
 20014b8:	d8c12f15 	stw	r3,1212(sp)
 20014bc:	1802251e 	bne	r3,zero,2001d54 <___vfprintf_internal_r+0xa58>
 20014c0:	d9012e17 	ldw	r4,1208(sp)
 20014c4:	d8c12817 	ldw	r3,1184(sp)
 20014c8:	20edc83a 	sub	r22,r4,r3
 20014cc:	0582210e 	bge	zero,r22,2001d54 <___vfprintf_internal_r+0xa58>
 20014d0:	02800404 	movi	r10,16
 20014d4:	da011d17 	ldw	r8,1140(sp)
 20014d8:	d8c11c17 	ldw	r3,1136(sp)
 20014dc:	05c08074 	movhi	r23,513
 20014e0:	bdc9dd84 	addi	r23,r23,10102
 20014e4:	5580200e 	bge	r10,r22,2001568 <___vfprintf_internal_r+0x26c>
 20014e8:	dc813815 	stw	r18,1248(sp)
 20014ec:	5039883a 	mov	fp,r10
 20014f0:	b825883a 	mov	r18,r23
 20014f4:	050001c4 	movi	r20,7
 20014f8:	b02f883a 	mov	r23,r22
 20014fc:	802d883a 	mov	r22,r16
 2001500:	dc012917 	ldw	r16,1188(sp)
 2001504:	00000306 	br	2001514 <___vfprintf_internal_r+0x218>
 2001508:	bdfffc04 	addi	r23,r23,-16
 200150c:	4a400204 	addi	r9,r9,8
 2001510:	e5c0110e 	bge	fp,r23,2001558 <___vfprintf_internal_r+0x25c>
 2001514:	4c800015 	stw	r18,0(r9)
 2001518:	4f000115 	stw	fp,4(r9)
 200151c:	42000404 	addi	r8,r8,16
 2001520:	18c00044 	addi	r3,r3,1
 2001524:	da011d15 	stw	r8,1140(sp)
 2001528:	d8c11c15 	stw	r3,1136(sp)
 200152c:	a0fff60e 	bge	r20,r3,2001508 <__alt_data_end+0xff001508>
 2001530:	8809883a 	mov	r4,r17
 2001534:	800b883a 	mov	r5,r16
 2001538:	d9811b04 	addi	r6,sp,1132
 200153c:	20012c80 	call	20012c8 <__sprint_r>
 2001540:	1000b41e 	bne	r2,zero,2001814 <___vfprintf_internal_r+0x518>
 2001544:	bdfffc04 	addi	r23,r23,-16
 2001548:	da011d17 	ldw	r8,1140(sp)
 200154c:	d8c11c17 	ldw	r3,1136(sp)
 2001550:	da400404 	addi	r9,sp,16
 2001554:	e5ffef16 	blt	fp,r23,2001514 <__alt_data_end+0xff001514>
 2001558:	b021883a 	mov	r16,r22
 200155c:	b82d883a 	mov	r22,r23
 2001560:	902f883a 	mov	r23,r18
 2001564:	dc813817 	ldw	r18,1248(sp)
 2001568:	4dc00015 	stw	r23,0(r9)
 200156c:	4d800115 	stw	r22,4(r9)
 2001570:	4591883a 	add	r8,r8,r22
 2001574:	18c00044 	addi	r3,r3,1
 2001578:	da011d15 	stw	r8,1140(sp)
 200157c:	d8c11c15 	stw	r3,1136(sp)
 2001580:	008001c4 	movi	r2,7
 2001584:	10c3fe16 	blt	r2,r3,2002580 <___vfprintf_internal_r+0x1284>
 2001588:	4a400204 	addi	r9,r9,8
 200158c:	0001f306 	br	2001d5c <___vfprintf_internal_r+0xa60>
 2001590:	1085883a 	add	r2,r2,r2
 2001594:	1085883a 	add	r2,r2,r2
 2001598:	01008034 	movhi	r4,512
 200159c:	21056b04 	addi	r4,r4,5548
 20015a0:	1105883a 	add	r2,r2,r4
 20015a4:	10800017 	ldw	r2,0(r2)
 20015a8:	1000683a 	jmp	r2
 20015ac:	02001c88 	cmpgei	r8,zero,114
 20015b0:	02001478 	rdprs	r8,zero,81
 20015b4:	02001478 	rdprs	r8,zero,81
 20015b8:	02001ca0 	cmpeqi	r8,zero,114
 20015bc:	02001478 	rdprs	r8,zero,81
 20015c0:	02001478 	rdprs	r8,zero,81
 20015c4:	02001478 	rdprs	r8,zero,81
 20015c8:	02001478 	rdprs	r8,zero,81
 20015cc:	02001478 	rdprs	r8,zero,81
 20015d0:	02001478 	rdprs	r8,zero,81
 20015d4:	02001b58 	cmpnei	r8,zero,109
 20015d8:	02001cec 	andhi	r8,zero,115
 20015dc:	02001478 	rdprs	r8,zero,81
 20015e0:	02001720 	cmpeqi	r8,zero,92
 20015e4:	02001ac0 	call	2001ac <__alt_mem_onchip_memory2_0+0x2001ac>
 20015e8:	02001478 	rdprs	r8,zero,81
 20015ec:	02001cac 	andhi	r8,zero,114
 20015f0:	02001cb8 	rdprs	r8,zero,114
 20015f4:	02001cb8 	rdprs	r8,zero,114
 20015f8:	02001cb8 	rdprs	r8,zero,114
 20015fc:	02001cb8 	rdprs	r8,zero,114
 2001600:	02001cb8 	rdprs	r8,zero,114
 2001604:	02001cb8 	rdprs	r8,zero,114
 2001608:	02001cb8 	rdprs	r8,zero,114
 200160c:	02001cb8 	rdprs	r8,zero,114
 2001610:	02001cb8 	rdprs	r8,zero,114
 2001614:	02001478 	rdprs	r8,zero,81
 2001618:	02001478 	rdprs	r8,zero,81
 200161c:	02001478 	rdprs	r8,zero,81
 2001620:	02001478 	rdprs	r8,zero,81
 2001624:	02001478 	rdprs	r8,zero,81
 2001628:	02001478 	rdprs	r8,zero,81
 200162c:	02001478 	rdprs	r8,zero,81
 2001630:	02001478 	rdprs	r8,zero,81
 2001634:	02001478 	rdprs	r8,zero,81
 2001638:	02001478 	rdprs	r8,zero,81
 200163c:	02001890 	cmplti	r8,zero,98
 2001640:	02001950 	cmplti	r8,zero,101
 2001644:	02001478 	rdprs	r8,zero,81
 2001648:	02001950 	cmplti	r8,zero,101
 200164c:	02001478 	rdprs	r8,zero,81
 2001650:	02001478 	rdprs	r8,zero,81
 2001654:	02001478 	rdprs	r8,zero,81
 2001658:	02001478 	rdprs	r8,zero,81
 200165c:	020019e4 	muli	r8,zero,103
 2001660:	02001478 	rdprs	r8,zero,81
 2001664:	02001478 	rdprs	r8,zero,81
 2001668:	020019f0 	cmpltui	r8,zero,103
 200166c:	02001478 	rdprs	r8,zero,81
 2001670:	02001478 	rdprs	r8,zero,81
 2001674:	02001478 	rdprs	r8,zero,81
 2001678:	02001478 	rdprs	r8,zero,81
 200167c:	02001478 	rdprs	r8,zero,81
 2001680:	02001a28 	cmpgeui	r8,zero,104
 2001684:	02001478 	rdprs	r8,zero,81
 2001688:	02001478 	rdprs	r8,zero,81
 200168c:	02001a64 	muli	r8,zero,105
 2001690:	02001478 	rdprs	r8,zero,81
 2001694:	02001478 	rdprs	r8,zero,81
 2001698:	02001478 	rdprs	r8,zero,81
 200169c:	02001478 	rdprs	r8,zero,81
 20016a0:	02001478 	rdprs	r8,zero,81
 20016a4:	02001478 	rdprs	r8,zero,81
 20016a8:	02001478 	rdprs	r8,zero,81
 20016ac:	02001478 	rdprs	r8,zero,81
 20016b0:	02001478 	rdprs	r8,zero,81
 20016b4:	02001478 	rdprs	r8,zero,81
 20016b8:	02001cfc 	xorhi	r8,zero,115
 20016bc:	02001d30 	cmpltui	r8,zero,116
 20016c0:	02001950 	cmplti	r8,zero,101
 20016c4:	02001950 	cmplti	r8,zero,101
 20016c8:	02001950 	cmplti	r8,zero,101
 20016cc:	02001c7c 	xorhi	r8,zero,113
 20016d0:	02001d30 	cmpltui	r8,zero,116
 20016d4:	02001478 	rdprs	r8,zero,81
 20016d8:	02001478 	rdprs	r8,zero,81
 20016dc:	02001b08 	cmpgei	r8,zero,108
 20016e0:	02001478 	rdprs	r8,zero,81
 20016e4:	02001b20 	cmpeqi	r8,zero,108
 20016e8:	02001d3c 	xorhi	r8,zero,116
 20016ec:	02001b80 	call	2001b8 <__alt_mem_onchip_memory2_0+0x2001b8>
 20016f0:	02001bd0 	cmplti	r8,zero,111
 20016f4:	02001478 	rdprs	r8,zero,81
 20016f8:	02001bdc 	xori	r8,zero,111
 20016fc:	02001478 	rdprs	r8,zero,81
 2001700:	02001d48 	cmpgei	r8,zero,117
 2001704:	02001478 	rdprs	r8,zero,81
 2001708:	02001478 	rdprs	r8,zero,81
 200170c:	02001c40 	call	2001c4 <__alt_mem_onchip_memory2_0+0x2001c4>
 2001710:	d9012e17 	ldw	r4,1208(sp)
 2001714:	d8812d15 	stw	r2,1204(sp)
 2001718:	0109c83a 	sub	r4,zero,r4
 200171c:	d9012e15 	stw	r4,1208(sp)
 2001720:	84000114 	ori	r16,r16,4
 2001724:	ac800007 	ldb	r18,0(r21)
 2001728:	003f5006 	br	200146c <__alt_data_end+0xff00146c>
 200172c:	d9013017 	ldw	r4,1216(sp)
 2001730:	d9412917 	ldw	r5,1188(sp)
 2001734:	20049240 	call	2004924 <__swsetup_r>
 2001738:	10003d1e 	bne	r2,zero,2001830 <___vfprintf_internal_r+0x534>
 200173c:	d8c12917 	ldw	r3,1188(sp)
 2001740:	1880030b 	ldhu	r2,12(r3)
 2001744:	00c00284 	movi	r3,10
 2001748:	1100068c 	andi	r4,r2,26
 200174c:	20ff101e 	bne	r4,r3,2001390 <__alt_data_end+0xff001390>
 2001750:	d9012917 	ldw	r4,1188(sp)
 2001754:	20c0038b 	ldhu	r3,14(r4)
 2001758:	193fffcc 	andi	r4,r3,65535
 200175c:	2120001c 	xori	r4,r4,32768
 2001760:	21200004 	addi	r4,r4,-32768
 2001764:	203f0a16 	blt	r4,zero,2001390 <__alt_data_end+0xff001390>
 2001768:	d9012917 	ldw	r4,1188(sp)
 200176c:	d9c12d17 	ldw	r7,1204(sp)
 2001770:	10bfff4c 	andi	r2,r2,65533
 2001774:	22800717 	ldw	r10,28(r4)
 2001778:	22400917 	ldw	r9,36(r4)
 200177c:	d9013017 	ldw	r4,1216(sp)
 2001780:	02010004 	movi	r8,1024
 2001784:	d881070d 	sth	r2,1052(sp)
 2001788:	d9410404 	addi	r5,sp,1040
 200178c:	d8800404 	addi	r2,sp,16
 2001790:	800d883a 	mov	r6,r16
 2001794:	d8c1078d 	sth	r3,1054(sp)
 2001798:	da810b15 	stw	r10,1068(sp)
 200179c:	da410d15 	stw	r9,1076(sp)
 20017a0:	d8810415 	stw	r2,1040(sp)
 20017a4:	d8810815 	stw	r2,1056(sp)
 20017a8:	da010615 	stw	r8,1048(sp)
 20017ac:	da010915 	stw	r8,1060(sp)
 20017b0:	d8010a15 	stw	zero,1064(sp)
 20017b4:	20012fc0 	call	20012fc <___vfprintf_internal_r>
 20017b8:	d8812c15 	stw	r2,1200(sp)
 20017bc:	10000416 	blt	r2,zero,20017d0 <___vfprintf_internal_r+0x4d4>
 20017c0:	d9013017 	ldw	r4,1216(sp)
 20017c4:	d9410404 	addi	r5,sp,1040
 20017c8:	20062f00 	call	20062f0 <_fflush_r>
 20017cc:	1006501e 	bne	r2,zero,2003110 <___vfprintf_internal_r+0x1e14>
 20017d0:	d881070b 	ldhu	r2,1052(sp)
 20017d4:	1080100c 	andi	r2,r2,64
 20017d8:	10bfffcc 	andi	r2,r2,65535
 20017dc:	10a0001c 	xori	r2,r2,32768
 20017e0:	10a00004 	addi	r2,r2,-32768
 20017e4:	10001426 	beq	r2,zero,2001838 <___vfprintf_internal_r+0x53c>
 20017e8:	d8c12917 	ldw	r3,1188(sp)
 20017ec:	1880030b 	ldhu	r2,12(r3)
 20017f0:	10801014 	ori	r2,r2,64
 20017f4:	1880030d 	sth	r2,12(r3)
 20017f8:	00000f06 	br	2001838 <___vfprintf_internal_r+0x53c>
 20017fc:	d8811d17 	ldw	r2,1140(sp)
 2001800:	10000426 	beq	r2,zero,2001814 <___vfprintf_internal_r+0x518>
 2001804:	d9013017 	ldw	r4,1216(sp)
 2001808:	d9412917 	ldw	r5,1188(sp)
 200180c:	d9811b04 	addi	r6,sp,1132
 2001810:	20012c80 	call	20012c8 <__sprint_r>
 2001814:	d8c12917 	ldw	r3,1188(sp)
 2001818:	1880030b 	ldhu	r2,12(r3)
 200181c:	1080100c 	andi	r2,r2,64
 2001820:	10bfffcc 	andi	r2,r2,65535
 2001824:	10a0001c 	xori	r2,r2,32768
 2001828:	10a00004 	addi	r2,r2,-32768
 200182c:	10000226 	beq	r2,zero,2001838 <___vfprintf_internal_r+0x53c>
 2001830:	00bfffc4 	movi	r2,-1
 2001834:	d8812c15 	stw	r2,1200(sp)
 2001838:	d8812c17 	ldw	r2,1200(sp)
 200183c:	dfc14617 	ldw	ra,1304(sp)
 2001840:	df014517 	ldw	fp,1300(sp)
 2001844:	ddc14417 	ldw	r23,1296(sp)
 2001848:	dd814317 	ldw	r22,1292(sp)
 200184c:	dd414217 	ldw	r21,1288(sp)
 2001850:	dd014117 	ldw	r20,1284(sp)
 2001854:	dcc14017 	ldw	r19,1280(sp)
 2001858:	dc813f17 	ldw	r18,1276(sp)
 200185c:	dc413e17 	ldw	r17,1272(sp)
 2001860:	dc013d17 	ldw	r16,1268(sp)
 2001864:	dec14704 	addi	sp,sp,1308
 2001868:	f800283a 	ret
 200186c:	d9412917 	ldw	r5,1188(sp)
 2001870:	8809883a 	mov	r4,r17
 2001874:	d9811b04 	addi	r6,sp,1132
 2001878:	20012c80 	call	20012c8 <__sprint_r>
 200187c:	103fe51e 	bne	r2,zero,2001814 <__alt_data_end+0xff001814>
 2001880:	da400404 	addi	r9,sp,16
 2001884:	003eea06 	br	2001430 <__alt_data_end+0xff001430>
 2001888:	20065ac0 	call	20065ac <__sinit>
 200188c:	003eb306 	br	200135c <__alt_data_end+0xff00135c>
 2001890:	e013883a 	mov	r9,fp
 2001894:	84000414 	ori	r16,r16,16
 2001898:	1839883a 	mov	fp,r3
 200189c:	8080080c 	andi	r2,r16,32
 20018a0:	10034426 	beq	r2,zero,20025b4 <___vfprintf_internal_r+0x12b8>
 20018a4:	d8c12d17 	ldw	r3,1204(sp)
 20018a8:	18800117 	ldw	r2,4(r3)
 20018ac:	1dc00017 	ldw	r23,0(r3)
 20018b0:	18c00204 	addi	r3,r3,8
 20018b4:	d8c12d15 	stw	r3,1204(sp)
 20018b8:	102d883a 	mov	r22,r2
 20018bc:	1003020e 	bge	r2,zero,20024c8 <___vfprintf_internal_r+0x11cc>
 20018c0:	05efc83a 	sub	r23,zero,r23
 20018c4:	b804c03a 	cmpne	r2,r23,zero
 20018c8:	05adc83a 	sub	r22,zero,r22
 20018cc:	b0adc83a 	sub	r22,r22,r2
 20018d0:	00800b44 	movi	r2,45
 20018d4:	d8812585 	stb	r2,1174(sp)
 20018d8:	00c00044 	movi	r3,1
 20018dc:	bd84b03a 	or	r2,r23,r22
 20018e0:	e0000216 	blt	fp,zero,20018ec <___vfprintf_internal_r+0x5f0>
 20018e4:	013fdfc4 	movi	r4,-129
 20018e8:	8120703a 	and	r16,r16,r4
 20018ec:	1001cc1e 	bne	r2,zero,2002020 <___vfprintf_internal_r+0xd24>
 20018f0:	e001cb1e 	bne	fp,zero,2002020 <___vfprintf_internal_r+0xd24>
 20018f4:	18c03fcc 	andi	r3,r3,255
 20018f8:	1802ca1e 	bne	r3,zero,2002424 <___vfprintf_internal_r+0x1128>
 20018fc:	8080004c 	andi	r2,r16,1
 2001900:	1002c826 	beq	r2,zero,2002424 <___vfprintf_internal_r+0x1128>
 2001904:	d8c13917 	ldw	r3,1252(sp)
 2001908:	00800c04 	movi	r2,48
 200190c:	d8810dc5 	stb	r2,1079(sp)
 2001910:	d8c12b15 	stw	r3,1196(sp)
 2001914:	dcc10dc4 	addi	r19,sp,1079
 2001918:	d8812b17 	ldw	r2,1196(sp)
 200191c:	d8812815 	stw	r2,1184(sp)
 2001920:	1700010e 	bge	r2,fp,2001928 <___vfprintf_internal_r+0x62c>
 2001924:	df012815 	stw	fp,1184(sp)
 2001928:	d8812583 	ldbu	r2,1174(sp)
 200192c:	df013115 	stw	fp,1220(sp)
 2001930:	10803fcc 	andi	r2,r2,255
 2001934:	1080201c 	xori	r2,r2,128
 2001938:	10bfe004 	addi	r2,r2,-128
 200193c:	103ed726 	beq	r2,zero,200149c <__alt_data_end+0xff00149c>
 2001940:	d8c12817 	ldw	r3,1184(sp)
 2001944:	18c00044 	addi	r3,r3,1
 2001948:	d8c12815 	stw	r3,1184(sp)
 200194c:	003ed306 	br	200149c <__alt_data_end+0xff00149c>
 2001950:	8080020c 	andi	r2,r16,8
 2001954:	e013883a 	mov	r9,fp
 2001958:	1839883a 	mov	fp,r3
 200195c:	1003a626 	beq	r2,zero,20027f8 <___vfprintf_internal_r+0x14fc>
 2001960:	d9012d17 	ldw	r4,1204(sp)
 2001964:	25800017 	ldw	r22,0(r4)
 2001968:	25000117 	ldw	r20,4(r4)
 200196c:	21000204 	addi	r4,r4,8
 2001970:	d9012d15 	stw	r4,1204(sp)
 2001974:	dd813315 	stw	r22,1228(sp)
 2001978:	dd013415 	stw	r20,1232(sp)
 200197c:	b009883a 	mov	r4,r22
 2001980:	a00b883a 	mov	r5,r20
 2001984:	da413c15 	stw	r9,1264(sp)
 2001988:	2009cdc0 	call	2009cdc <__isinfd>
 200198c:	da413c17 	ldw	r9,1264(sp)
 2001990:	b009883a 	mov	r4,r22
 2001994:	a00b883a 	mov	r5,r20
 2001998:	10041d26 	beq	r2,zero,2002a10 <___vfprintf_internal_r+0x1714>
 200199c:	000d883a 	mov	r6,zero
 20019a0:	000f883a 	mov	r7,zero
 20019a4:	200efbc0 	call	200efbc <__ltdf2>
 20019a8:	da413c17 	ldw	r9,1264(sp)
 20019ac:	1004da16 	blt	r2,zero,2002d18 <___vfprintf_internal_r+0x1a1c>
 20019b0:	d8812583 	ldbu	r2,1174(sp)
 20019b4:	00c011c4 	movi	r3,71
 20019b8:	1c83d116 	blt	r3,r18,2002900 <___vfprintf_internal_r+0x1604>
 20019bc:	04c08074 	movhi	r19,513
 20019c0:	9cc9cd04 	addi	r19,r19,10036
 20019c4:	00c000c4 	movi	r3,3
 20019c8:	d8c12815 	stw	r3,1184(sp)
 20019cc:	00ffdfc4 	movi	r3,-129
 20019d0:	80e0703a 	and	r16,r16,r3
 20019d4:	d8c12817 	ldw	r3,1184(sp)
 20019d8:	d8013115 	stw	zero,1220(sp)
 20019dc:	d8c12b15 	stw	r3,1196(sp)
 20019e0:	003fd306 	br	2001930 <__alt_data_end+0xff001930>
 20019e4:	84000214 	ori	r16,r16,8
 20019e8:	ac800007 	ldb	r18,0(r21)
 20019ec:	003e9f06 	br	200146c <__alt_data_end+0xff00146c>
 20019f0:	e013883a 	mov	r9,fp
 20019f4:	84000414 	ori	r16,r16,16
 20019f8:	1839883a 	mov	fp,r3
 20019fc:	8080080c 	andi	r2,r16,32
 2001a00:	10031d26 	beq	r2,zero,2002678 <___vfprintf_internal_r+0x137c>
 2001a04:	d8812d17 	ldw	r2,1204(sp)
 2001a08:	0007883a 	mov	r3,zero
 2001a0c:	15c00017 	ldw	r23,0(r2)
 2001a10:	15800117 	ldw	r22,4(r2)
 2001a14:	10800204 	addi	r2,r2,8
 2001a18:	d8812d15 	stw	r2,1204(sp)
 2001a1c:	d8012585 	stb	zero,1174(sp)
 2001a20:	bd84b03a 	or	r2,r23,r22
 2001a24:	003fae06 	br	20018e0 <__alt_data_end+0xff0018e0>
 2001a28:	e013883a 	mov	r9,fp
 2001a2c:	84000414 	ori	r16,r16,16
 2001a30:	1839883a 	mov	fp,r3
 2001a34:	8080080c 	andi	r2,r16,32
 2001a38:	1002e726 	beq	r2,zero,20025d8 <___vfprintf_internal_r+0x12dc>
 2001a3c:	d8c12d17 	ldw	r3,1204(sp)
 2001a40:	d9012d17 	ldw	r4,1204(sp)
 2001a44:	1dc00017 	ldw	r23,0(r3)
 2001a48:	1d800117 	ldw	r22,4(r3)
 2001a4c:	21000204 	addi	r4,r4,8
 2001a50:	00c00044 	movi	r3,1
 2001a54:	d9012d15 	stw	r4,1204(sp)
 2001a58:	bd84b03a 	or	r2,r23,r22
 2001a5c:	d8012585 	stb	zero,1174(sp)
 2001a60:	003f9f06 	br	20018e0 <__alt_data_end+0xff0018e0>
 2001a64:	e013883a 	mov	r9,fp
 2001a68:	1839883a 	mov	fp,r3
 2001a6c:	00c08074 	movhi	r3,513
 2001a70:	18c9d104 	addi	r3,r3,10052
 2001a74:	d8c13615 	stw	r3,1240(sp)
 2001a78:	8080080c 	andi	r2,r16,32
 2001a7c:	10007726 	beq	r2,zero,2001c5c <___vfprintf_internal_r+0x960>
 2001a80:	d9012d17 	ldw	r4,1204(sp)
 2001a84:	25c00017 	ldw	r23,0(r4)
 2001a88:	25800117 	ldw	r22,4(r4)
 2001a8c:	21000204 	addi	r4,r4,8
 2001a90:	d9012d15 	stw	r4,1204(sp)
 2001a94:	8080004c 	andi	r2,r16,1
 2001a98:	1002c226 	beq	r2,zero,20025a4 <___vfprintf_internal_r+0x12a8>
 2001a9c:	bd84b03a 	or	r2,r23,r22
 2001aa0:	10035d26 	beq	r2,zero,2002818 <___vfprintf_internal_r+0x151c>
 2001aa4:	00c00c04 	movi	r3,48
 2001aa8:	d8c12505 	stb	r3,1172(sp)
 2001aac:	dc812545 	stb	r18,1173(sp)
 2001ab0:	84000094 	ori	r16,r16,2
 2001ab4:	00c00084 	movi	r3,2
 2001ab8:	d8012585 	stb	zero,1174(sp)
 2001abc:	003f8806 	br	20018e0 <__alt_data_end+0xff0018e0>
 2001ac0:	ac800007 	ldb	r18,0(r21)
 2001ac4:	00c00a84 	movi	r3,42
 2001ac8:	adc00044 	addi	r23,r21,1
 2001acc:	90c57526 	beq	r18,r3,20030a4 <___vfprintf_internal_r+0x1da8>
 2001ad0:	95bff404 	addi	r22,r18,-48
 2001ad4:	0009883a 	mov	r4,zero
 2001ad8:	9d84ff36 	bltu	r19,r22,2002ed8 <___vfprintf_internal_r+0x1bdc>
 2001adc:	01400284 	movi	r5,10
 2001ae0:	20010a80 	call	20010a8 <__mulsi3>
 2001ae4:	bc800007 	ldb	r18,0(r23)
 2001ae8:	b089883a 	add	r4,r22,r2
 2001aec:	bdc00044 	addi	r23,r23,1
 2001af0:	95bff404 	addi	r22,r18,-48
 2001af4:	9dbff92e 	bgeu	r19,r22,2001adc <__alt_data_end+0xff001adc>
 2001af8:	2007883a 	mov	r3,r4
 2001afc:	20044316 	blt	r4,zero,2002c0c <___vfprintf_internal_r+0x1910>
 2001b00:	b82b883a 	mov	r21,r23
 2001b04:	003e5a06 	br	2001470 <__alt_data_end+0xff001470>
 2001b08:	ac800007 	ldb	r18,0(r21)
 2001b0c:	01001b04 	movi	r4,108
 2001b10:	a805883a 	mov	r2,r21
 2001b14:	91045526 	beq	r18,r4,2002c6c <___vfprintf_internal_r+0x1970>
 2001b18:	84000414 	ori	r16,r16,16
 2001b1c:	003e5306 	br	200146c <__alt_data_end+0xff00146c>
 2001b20:	8080080c 	andi	r2,r16,32
 2001b24:	e013883a 	mov	r9,fp
 2001b28:	10034026 	beq	r2,zero,200282c <___vfprintf_internal_r+0x1530>
 2001b2c:	d9012d17 	ldw	r4,1204(sp)
 2001b30:	20800017 	ldw	r2,0(r4)
 2001b34:	d9012c17 	ldw	r4,1200(sp)
 2001b38:	2007d7fa 	srai	r3,r4,31
 2001b3c:	d9012d17 	ldw	r4,1204(sp)
 2001b40:	10c00115 	stw	r3,4(r2)
 2001b44:	21000104 	addi	r4,r4,4
 2001b48:	d9012d15 	stw	r4,1204(sp)
 2001b4c:	d9012c17 	ldw	r4,1200(sp)
 2001b50:	11000015 	stw	r4,0(r2)
 2001b54:	003e1f06 	br	20013d4 <__alt_data_end+0xff0013d4>
 2001b58:	d9012d17 	ldw	r4,1204(sp)
 2001b5c:	21000017 	ldw	r4,0(r4)
 2001b60:	d9012e15 	stw	r4,1208(sp)
 2001b64:	d9012d17 	ldw	r4,1204(sp)
 2001b68:	20800104 	addi	r2,r4,4
 2001b6c:	d9012e17 	ldw	r4,1208(sp)
 2001b70:	203ee716 	blt	r4,zero,2001710 <__alt_data_end+0xff001710>
 2001b74:	d8812d15 	stw	r2,1204(sp)
 2001b78:	ac800007 	ldb	r18,0(r21)
 2001b7c:	003e3b06 	br	200146c <__alt_data_end+0xff00146c>
 2001b80:	e013883a 	mov	r9,fp
 2001b84:	1839883a 	mov	fp,r3
 2001b88:	d8c12d17 	ldw	r3,1204(sp)
 2001b8c:	00800c04 	movi	r2,48
 2001b90:	01008074 	movhi	r4,513
 2001b94:	2109d604 	addi	r4,r4,10072
 2001b98:	1dc00017 	ldw	r23,0(r3)
 2001b9c:	18c00104 	addi	r3,r3,4
 2001ba0:	d8812505 	stb	r2,1172(sp)
 2001ba4:	00801e04 	movi	r2,120
 2001ba8:	d8812545 	stb	r2,1173(sp)
 2001bac:	d8c12d15 	stw	r3,1204(sp)
 2001bb0:	002d883a 	mov	r22,zero
 2001bb4:	84000094 	ori	r16,r16,2
 2001bb8:	d9013615 	stw	r4,1240(sp)
 2001bbc:	00c00084 	movi	r3,2
 2001bc0:	04801e04 	movi	r18,120
 2001bc4:	b805883a 	mov	r2,r23
 2001bc8:	d8012585 	stb	zero,1174(sp)
 2001bcc:	003f4406 	br	20018e0 <__alt_data_end+0xff0018e0>
 2001bd0:	84000814 	ori	r16,r16,32
 2001bd4:	ac800007 	ldb	r18,0(r21)
 2001bd8:	003e2406 	br	200146c <__alt_data_end+0xff00146c>
 2001bdc:	d8812d17 	ldw	r2,1204(sp)
 2001be0:	d8012585 	stb	zero,1174(sp)
 2001be4:	e013883a 	mov	r9,fp
 2001be8:	14c00017 	ldw	r19,0(r2)
 2001bec:	1839883a 	mov	fp,r3
 2001bf0:	15c00104 	addi	r23,r2,4
 2001bf4:	98045526 	beq	r19,zero,2002d4c <___vfprintf_internal_r+0x1a50>
 2001bf8:	9809883a 	mov	r4,r19
 2001bfc:	18043116 	blt	r3,zero,2002cc4 <___vfprintf_internal_r+0x19c8>
 2001c00:	000b883a 	mov	r5,zero
 2001c04:	180d883a 	mov	r6,r3
 2001c08:	da413c15 	stw	r9,1264(sp)
 2001c0c:	2007fe80 	call	2007fe8 <memchr>
 2001c10:	da413c17 	ldw	r9,1264(sp)
 2001c14:	10047a26 	beq	r2,zero,2002e00 <___vfprintf_internal_r+0x1b04>
 2001c18:	14c5c83a 	sub	r2,r2,r19
 2001c1c:	d8812b15 	stw	r2,1196(sp)
 2001c20:	e083d40e 	bge	fp,r2,2002b74 <___vfprintf_internal_r+0x1878>
 2001c24:	df012815 	stw	fp,1184(sp)
 2001c28:	e004e416 	blt	fp,zero,2002fbc <___vfprintf_internal_r+0x1cc0>
 2001c2c:	d8812583 	ldbu	r2,1174(sp)
 2001c30:	df012b15 	stw	fp,1196(sp)
 2001c34:	ddc12d15 	stw	r23,1204(sp)
 2001c38:	d8013115 	stw	zero,1220(sp)
 2001c3c:	003f3c06 	br	2001930 <__alt_data_end+0xff001930>
 2001c40:	00808074 	movhi	r2,513
 2001c44:	1089d604 	addi	r2,r2,10072
 2001c48:	d8813615 	stw	r2,1240(sp)
 2001c4c:	8080080c 	andi	r2,r16,32
 2001c50:	e013883a 	mov	r9,fp
 2001c54:	1839883a 	mov	fp,r3
 2001c58:	103f891e 	bne	r2,zero,2001a80 <__alt_data_end+0xff001a80>
 2001c5c:	8080040c 	andi	r2,r16,16
 2001c60:	1002c326 	beq	r2,zero,2002770 <___vfprintf_internal_r+0x1474>
 2001c64:	d8812d17 	ldw	r2,1204(sp)
 2001c68:	002d883a 	mov	r22,zero
 2001c6c:	15c00017 	ldw	r23,0(r2)
 2001c70:	10800104 	addi	r2,r2,4
 2001c74:	d8812d15 	stw	r2,1204(sp)
 2001c78:	003f8606 	br	2001a94 <__alt_data_end+0xff001a94>
 2001c7c:	84001014 	ori	r16,r16,64
 2001c80:	ac800007 	ldb	r18,0(r21)
 2001c84:	003df906 	br	200146c <__alt_data_end+0xff00146c>
 2001c88:	d8812587 	ldb	r2,1174(sp)
 2001c8c:	1002e51e 	bne	r2,zero,2002824 <___vfprintf_internal_r+0x1528>
 2001c90:	00800804 	movi	r2,32
 2001c94:	d8812585 	stb	r2,1174(sp)
 2001c98:	ac800007 	ldb	r18,0(r21)
 2001c9c:	003df306 	br	200146c <__alt_data_end+0xff00146c>
 2001ca0:	84000054 	ori	r16,r16,1
 2001ca4:	ac800007 	ldb	r18,0(r21)
 2001ca8:	003df006 	br	200146c <__alt_data_end+0xff00146c>
 2001cac:	84002014 	ori	r16,r16,128
 2001cb0:	ac800007 	ldb	r18,0(r21)
 2001cb4:	003ded06 	br	200146c <__alt_data_end+0xff00146c>
 2001cb8:	0009883a 	mov	r4,zero
 2001cbc:	95bff404 	addi	r22,r18,-48
 2001cc0:	182f883a 	mov	r23,r3
 2001cc4:	01400284 	movi	r5,10
 2001cc8:	20010a80 	call	20010a8 <__mulsi3>
 2001ccc:	ac800007 	ldb	r18,0(r21)
 2001cd0:	1589883a 	add	r4,r2,r22
 2001cd4:	ad400044 	addi	r21,r21,1
 2001cd8:	95bff404 	addi	r22,r18,-48
 2001cdc:	9dbff92e 	bgeu	r19,r22,2001cc4 <__alt_data_end+0xff001cc4>
 2001ce0:	b807883a 	mov	r3,r23
 2001ce4:	d9012e15 	stw	r4,1208(sp)
 2001ce8:	003de106 	br	2001470 <__alt_data_end+0xff001470>
 2001cec:	00800ac4 	movi	r2,43
 2001cf0:	d8812585 	stb	r2,1174(sp)
 2001cf4:	ac800007 	ldb	r18,0(r21)
 2001cf8:	003ddc06 	br	200146c <__alt_data_end+0xff00146c>
 2001cfc:	d8c12d17 	ldw	r3,1204(sp)
 2001d00:	d9012d17 	ldw	r4,1204(sp)
 2001d04:	e013883a 	mov	r9,fp
 2001d08:	18800017 	ldw	r2,0(r3)
 2001d0c:	21000104 	addi	r4,r4,4
 2001d10:	00c00044 	movi	r3,1
 2001d14:	d8c12815 	stw	r3,1184(sp)
 2001d18:	d8012585 	stb	zero,1174(sp)
 2001d1c:	d8810405 	stb	r2,1040(sp)
 2001d20:	d9012d15 	stw	r4,1204(sp)
 2001d24:	d8c12b15 	stw	r3,1196(sp)
 2001d28:	dcc10404 	addi	r19,sp,1040
 2001d2c:	003dda06 	br	2001498 <__alt_data_end+0xff001498>
 2001d30:	e013883a 	mov	r9,fp
 2001d34:	1839883a 	mov	fp,r3
 2001d38:	003ed806 	br	200189c <__alt_data_end+0xff00189c>
 2001d3c:	e013883a 	mov	r9,fp
 2001d40:	1839883a 	mov	fp,r3
 2001d44:	003f2d06 	br	20019fc <__alt_data_end+0xff0019fc>
 2001d48:	e013883a 	mov	r9,fp
 2001d4c:	1839883a 	mov	fp,r3
 2001d50:	003f3806 	br	2001a34 <__alt_data_end+0xff001a34>
 2001d54:	da011d17 	ldw	r8,1140(sp)
 2001d58:	d8c11c17 	ldw	r3,1136(sp)
 2001d5c:	d8812587 	ldb	r2,1174(sp)
 2001d60:	10000b26 	beq	r2,zero,2001d90 <___vfprintf_internal_r+0xa94>
 2001d64:	d8812584 	addi	r2,sp,1174
 2001d68:	48800015 	stw	r2,0(r9)
 2001d6c:	00800044 	movi	r2,1
 2001d70:	48800115 	stw	r2,4(r9)
 2001d74:	4091883a 	add	r8,r8,r2
 2001d78:	1887883a 	add	r3,r3,r2
 2001d7c:	da011d15 	stw	r8,1140(sp)
 2001d80:	d8c11c15 	stw	r3,1136(sp)
 2001d84:	008001c4 	movi	r2,7
 2001d88:	10c18e16 	blt	r2,r3,20023c4 <___vfprintf_internal_r+0x10c8>
 2001d8c:	4a400204 	addi	r9,r9,8
 2001d90:	d9012a17 	ldw	r4,1192(sp)
 2001d94:	20000b26 	beq	r4,zero,2001dc4 <___vfprintf_internal_r+0xac8>
 2001d98:	d8812504 	addi	r2,sp,1172
 2001d9c:	48800015 	stw	r2,0(r9)
 2001da0:	00800084 	movi	r2,2
 2001da4:	48800115 	stw	r2,4(r9)
 2001da8:	4091883a 	add	r8,r8,r2
 2001dac:	18c00044 	addi	r3,r3,1
 2001db0:	da011d15 	stw	r8,1140(sp)
 2001db4:	d8c11c15 	stw	r3,1136(sp)
 2001db8:	008001c4 	movi	r2,7
 2001dbc:	10c17816 	blt	r2,r3,20023a0 <___vfprintf_internal_r+0x10a4>
 2001dc0:	4a400204 	addi	r9,r9,8
 2001dc4:	d9012f17 	ldw	r4,1212(sp)
 2001dc8:	00802004 	movi	r2,128
 2001dcc:	2080fc26 	beq	r4,r2,20021c0 <___vfprintf_internal_r+0xec4>
 2001dd0:	d8813117 	ldw	r2,1220(sp)
 2001dd4:	d9012b17 	ldw	r4,1196(sp)
 2001dd8:	112fc83a 	sub	r23,r2,r4
 2001ddc:	05c02a0e 	bge	zero,r23,2001e88 <___vfprintf_internal_r+0xb8c>
 2001de0:	07000404 	movi	fp,16
 2001de4:	05008074 	movhi	r20,513
 2001de8:	a509e184 	addi	r20,r20,10118
 2001dec:	e5c01d0e 	bge	fp,r23,2001e64 <___vfprintf_internal_r+0xb68>
 2001df0:	dc812a15 	stw	r18,1192(sp)
 2001df4:	058001c4 	movi	r22,7
 2001df8:	a025883a 	mov	r18,r20
 2001dfc:	8029883a 	mov	r20,r16
 2001e00:	dc012917 	ldw	r16,1188(sp)
 2001e04:	00000306 	br	2001e14 <___vfprintf_internal_r+0xb18>
 2001e08:	bdfffc04 	addi	r23,r23,-16
 2001e0c:	4a400204 	addi	r9,r9,8
 2001e10:	e5c0110e 	bge	fp,r23,2001e58 <___vfprintf_internal_r+0xb5c>
 2001e14:	4c800015 	stw	r18,0(r9)
 2001e18:	4f000115 	stw	fp,4(r9)
 2001e1c:	42000404 	addi	r8,r8,16
 2001e20:	18c00044 	addi	r3,r3,1
 2001e24:	da011d15 	stw	r8,1140(sp)
 2001e28:	d8c11c15 	stw	r3,1136(sp)
 2001e2c:	b0fff60e 	bge	r22,r3,2001e08 <__alt_data_end+0xff001e08>
 2001e30:	8809883a 	mov	r4,r17
 2001e34:	800b883a 	mov	r5,r16
 2001e38:	d9811b04 	addi	r6,sp,1132
 2001e3c:	20012c80 	call	20012c8 <__sprint_r>
 2001e40:	103e741e 	bne	r2,zero,2001814 <__alt_data_end+0xff001814>
 2001e44:	bdfffc04 	addi	r23,r23,-16
 2001e48:	da011d17 	ldw	r8,1140(sp)
 2001e4c:	d8c11c17 	ldw	r3,1136(sp)
 2001e50:	da400404 	addi	r9,sp,16
 2001e54:	e5ffef16 	blt	fp,r23,2001e14 <__alt_data_end+0xff001e14>
 2001e58:	a021883a 	mov	r16,r20
 2001e5c:	9029883a 	mov	r20,r18
 2001e60:	dc812a17 	ldw	r18,1192(sp)
 2001e64:	4d000015 	stw	r20,0(r9)
 2001e68:	4dc00115 	stw	r23,4(r9)
 2001e6c:	45d1883a 	add	r8,r8,r23
 2001e70:	18c00044 	addi	r3,r3,1
 2001e74:	da011d15 	stw	r8,1140(sp)
 2001e78:	d8c11c15 	stw	r3,1136(sp)
 2001e7c:	008001c4 	movi	r2,7
 2001e80:	10c13e16 	blt	r2,r3,200237c <___vfprintf_internal_r+0x1080>
 2001e84:	4a400204 	addi	r9,r9,8
 2001e88:	8080400c 	andi	r2,r16,256
 2001e8c:	1000831e 	bne	r2,zero,200209c <___vfprintf_internal_r+0xda0>
 2001e90:	d8812b17 	ldw	r2,1196(sp)
 2001e94:	4cc00015 	stw	r19,0(r9)
 2001e98:	48800115 	stw	r2,4(r9)
 2001e9c:	4091883a 	add	r8,r8,r2
 2001ea0:	18c00044 	addi	r3,r3,1
 2001ea4:	da011d15 	stw	r8,1140(sp)
 2001ea8:	d8c11c15 	stw	r3,1136(sp)
 2001eac:	008001c4 	movi	r2,7
 2001eb0:	10c05316 	blt	r2,r3,2002000 <___vfprintf_internal_r+0xd04>
 2001eb4:	4a400204 	addi	r9,r9,8
 2001eb8:	8400010c 	andi	r16,r16,4
 2001ebc:	80002e26 	beq	r16,zero,2001f78 <___vfprintf_internal_r+0xc7c>
 2001ec0:	d8812e17 	ldw	r2,1208(sp)
 2001ec4:	d8c12817 	ldw	r3,1184(sp)
 2001ec8:	10e1c83a 	sub	r16,r2,r3
 2001ecc:	04002a0e 	bge	zero,r16,2001f78 <___vfprintf_internal_r+0xc7c>
 2001ed0:	04800404 	movi	r18,16
 2001ed4:	d8c11c17 	ldw	r3,1136(sp)
 2001ed8:	05c08074 	movhi	r23,513
 2001edc:	bdc9dd84 	addi	r23,r23,10102
 2001ee0:	9400170e 	bge	r18,r16,2001f40 <___vfprintf_internal_r+0xc44>
 2001ee4:	04c001c4 	movi	r19,7
 2001ee8:	dd012917 	ldw	r20,1188(sp)
 2001eec:	00000306 	br	2001efc <___vfprintf_internal_r+0xc00>
 2001ef0:	843ffc04 	addi	r16,r16,-16
 2001ef4:	4a400204 	addi	r9,r9,8
 2001ef8:	9400110e 	bge	r18,r16,2001f40 <___vfprintf_internal_r+0xc44>
 2001efc:	4dc00015 	stw	r23,0(r9)
 2001f00:	4c800115 	stw	r18,4(r9)
 2001f04:	42000404 	addi	r8,r8,16
 2001f08:	18c00044 	addi	r3,r3,1
 2001f0c:	da011d15 	stw	r8,1140(sp)
 2001f10:	d8c11c15 	stw	r3,1136(sp)
 2001f14:	98fff60e 	bge	r19,r3,2001ef0 <__alt_data_end+0xff001ef0>
 2001f18:	8809883a 	mov	r4,r17
 2001f1c:	a00b883a 	mov	r5,r20
 2001f20:	d9811b04 	addi	r6,sp,1132
 2001f24:	20012c80 	call	20012c8 <__sprint_r>
 2001f28:	103e3a1e 	bne	r2,zero,2001814 <__alt_data_end+0xff001814>
 2001f2c:	843ffc04 	addi	r16,r16,-16
 2001f30:	da011d17 	ldw	r8,1140(sp)
 2001f34:	d8c11c17 	ldw	r3,1136(sp)
 2001f38:	da400404 	addi	r9,sp,16
 2001f3c:	943fef16 	blt	r18,r16,2001efc <__alt_data_end+0xff001efc>
 2001f40:	4dc00015 	stw	r23,0(r9)
 2001f44:	4c000115 	stw	r16,4(r9)
 2001f48:	8211883a 	add	r8,r16,r8
 2001f4c:	18c00044 	addi	r3,r3,1
 2001f50:	da011d15 	stw	r8,1140(sp)
 2001f54:	d8c11c15 	stw	r3,1136(sp)
 2001f58:	008001c4 	movi	r2,7
 2001f5c:	10c0060e 	bge	r2,r3,2001f78 <___vfprintf_internal_r+0xc7c>
 2001f60:	d9412917 	ldw	r5,1188(sp)
 2001f64:	8809883a 	mov	r4,r17
 2001f68:	d9811b04 	addi	r6,sp,1132
 2001f6c:	20012c80 	call	20012c8 <__sprint_r>
 2001f70:	103e281e 	bne	r2,zero,2001814 <__alt_data_end+0xff001814>
 2001f74:	da011d17 	ldw	r8,1140(sp)
 2001f78:	dd012817 	ldw	r20,1184(sp)
 2001f7c:	d9012e17 	ldw	r4,1208(sp)
 2001f80:	a100010e 	bge	r20,r4,2001f88 <___vfprintf_internal_r+0xc8c>
 2001f84:	2029883a 	mov	r20,r4
 2001f88:	d8812c17 	ldw	r2,1200(sp)
 2001f8c:	1505883a 	add	r2,r2,r20
 2001f90:	d8812c15 	stw	r2,1200(sp)
 2001f94:	4000b91e 	bne	r8,zero,200227c <___vfprintf_internal_r+0xf80>
 2001f98:	d8011c15 	stw	zero,1136(sp)
 2001f9c:	a8800007 	ldb	r2,0(r21)
 2001fa0:	da400404 	addi	r9,sp,16
 2001fa4:	103d0d1e 	bne	r2,zero,20013dc <__alt_data_end+0xff0013dc>
 2001fa8:	a825883a 	mov	r18,r21
 2001fac:	003d2306 	br	200143c <__alt_data_end+0xff00143c>
 2001fb0:	d9412917 	ldw	r5,1188(sp)
 2001fb4:	8809883a 	mov	r4,r17
 2001fb8:	d9811b04 	addi	r6,sp,1132
 2001fbc:	20012c80 	call	20012c8 <__sprint_r>
 2001fc0:	103e141e 	bne	r2,zero,2001814 <__alt_data_end+0xff001814>
 2001fc4:	da011d17 	ldw	r8,1140(sp)
 2001fc8:	da400404 	addi	r9,sp,16
 2001fcc:	8080004c 	andi	r2,r16,1
 2001fd0:	103fb926 	beq	r2,zero,2001eb8 <__alt_data_end+0xff001eb8>
 2001fd4:	d8c11c17 	ldw	r3,1136(sp)
 2001fd8:	d9013717 	ldw	r4,1244(sp)
 2001fdc:	00800044 	movi	r2,1
 2001fe0:	48800115 	stw	r2,4(r9)
 2001fe4:	49000015 	stw	r4,0(r9)
 2001fe8:	4091883a 	add	r8,r8,r2
 2001fec:	1887883a 	add	r3,r3,r2
 2001ff0:	da011d15 	stw	r8,1140(sp)
 2001ff4:	d8c11c15 	stw	r3,1136(sp)
 2001ff8:	008001c4 	movi	r2,7
 2001ffc:	10ffad0e 	bge	r2,r3,2001eb4 <__alt_data_end+0xff001eb4>
 2002000:	d9412917 	ldw	r5,1188(sp)
 2002004:	8809883a 	mov	r4,r17
 2002008:	d9811b04 	addi	r6,sp,1132
 200200c:	20012c80 	call	20012c8 <__sprint_r>
 2002010:	103e001e 	bne	r2,zero,2001814 <__alt_data_end+0xff001814>
 2002014:	da400404 	addi	r9,sp,16
 2002018:	da011d17 	ldw	r8,1140(sp)
 200201c:	003fa606 	br	2001eb8 <__alt_data_end+0xff001eb8>
 2002020:	18803fcc 	andi	r2,r3,255
 2002024:	00c00044 	movi	r3,1
 2002028:	10c10126 	beq	r2,r3,2002430 <___vfprintf_internal_r+0x1134>
 200202c:	00c00084 	movi	r3,2
 2002030:	10c0ed26 	beq	r2,r3,20023e8 <___vfprintf_internal_r+0x10ec>
 2002034:	d8c10dc4 	addi	r3,sp,1079
 2002038:	b808d0fa 	srli	r4,r23,3
 200203c:	b00a977a 	slli	r5,r22,29
 2002040:	b02cd0fa 	srli	r22,r22,3
 2002044:	bdc001cc 	andi	r23,r23,7
 2002048:	b8800c04 	addi	r2,r23,48
 200204c:	292eb03a 	or	r23,r5,r4
 2002050:	18800005 	stb	r2,0(r3)
 2002054:	bd88b03a 	or	r4,r23,r22
 2002058:	1827883a 	mov	r19,r3
 200205c:	18ffffc4 	addi	r3,r3,-1
 2002060:	203ff51e 	bne	r4,zero,2002038 <__alt_data_end+0xff002038>
 2002064:	8100004c 	andi	r4,r16,1
 2002068:	980b883a 	mov	r5,r19
 200206c:	20000726 	beq	r4,zero,200208c <___vfprintf_internal_r+0xd90>
 2002070:	10803fcc 	andi	r2,r2,255
 2002074:	1080201c 	xori	r2,r2,128
 2002078:	10bfe004 	addi	r2,r2,-128
 200207c:	01000c04 	movi	r4,48
 2002080:	11000226 	beq	r2,r4,200208c <___vfprintf_internal_r+0xd90>
 2002084:	1827883a 	mov	r19,r3
 2002088:	293fffc5 	stb	r4,-1(r5)
 200208c:	d8812717 	ldw	r2,1180(sp)
 2002090:	14c5c83a 	sub	r2,r2,r19
 2002094:	d8812b15 	stw	r2,1196(sp)
 2002098:	003e1f06 	br	2001918 <__alt_data_end+0xff001918>
 200209c:	00801944 	movi	r2,101
 20020a0:	14807c0e 	bge	r2,r18,2002294 <___vfprintf_internal_r+0xf98>
 20020a4:	d9013317 	ldw	r4,1228(sp)
 20020a8:	d9413417 	ldw	r5,1232(sp)
 20020ac:	000d883a 	mov	r6,zero
 20020b0:	000f883a 	mov	r7,zero
 20020b4:	d8c13b15 	stw	r3,1260(sp)
 20020b8:	da013a15 	stw	r8,1256(sp)
 20020bc:	da413c15 	stw	r9,1264(sp)
 20020c0:	200ee980 	call	200ee98 <__nedf2>
 20020c4:	d8c13b17 	ldw	r3,1260(sp)
 20020c8:	da013a17 	ldw	r8,1256(sp)
 20020cc:	da413c17 	ldw	r9,1264(sp)
 20020d0:	1001001e 	bne	r2,zero,20024d4 <___vfprintf_internal_r+0x11d8>
 20020d4:	00808074 	movhi	r2,513
 20020d8:	1089dd04 	addi	r2,r2,10100
 20020dc:	48800015 	stw	r2,0(r9)
 20020e0:	00800044 	movi	r2,1
 20020e4:	48800115 	stw	r2,4(r9)
 20020e8:	4091883a 	add	r8,r8,r2
 20020ec:	1887883a 	add	r3,r3,r2
 20020f0:	da011d15 	stw	r8,1140(sp)
 20020f4:	d8c11c15 	stw	r3,1136(sp)
 20020f8:	008001c4 	movi	r2,7
 20020fc:	10c20316 	blt	r2,r3,200290c <___vfprintf_internal_r+0x1610>
 2002100:	4a400204 	addi	r9,r9,8
 2002104:	d8812417 	ldw	r2,1168(sp)
 2002108:	d8c13217 	ldw	r3,1224(sp)
 200210c:	10c00216 	blt	r2,r3,2002118 <___vfprintf_internal_r+0xe1c>
 2002110:	8080004c 	andi	r2,r16,1
 2002114:	103f6826 	beq	r2,zero,2001eb8 <__alt_data_end+0xff001eb8>
 2002118:	d8c11c17 	ldw	r3,1136(sp)
 200211c:	d9013717 	ldw	r4,1244(sp)
 2002120:	00800044 	movi	r2,1
 2002124:	48800115 	stw	r2,4(r9)
 2002128:	49000015 	stw	r4,0(r9)
 200212c:	4091883a 	add	r8,r8,r2
 2002130:	1887883a 	add	r3,r3,r2
 2002134:	da011d15 	stw	r8,1140(sp)
 2002138:	d8c11c15 	stw	r3,1136(sp)
 200213c:	008001c4 	movi	r2,7
 2002140:	10c2ce16 	blt	r2,r3,2002c7c <___vfprintf_internal_r+0x1980>
 2002144:	4a400204 	addi	r9,r9,8
 2002148:	d8813217 	ldw	r2,1224(sp)
 200214c:	14bfffc4 	addi	r18,r2,-1
 2002150:	04bf590e 	bge	zero,r18,2001eb8 <__alt_data_end+0xff001eb8>
 2002154:	04c00404 	movi	r19,16
 2002158:	d8c11c17 	ldw	r3,1136(sp)
 200215c:	05008074 	movhi	r20,513
 2002160:	a509e184 	addi	r20,r20,10118
 2002164:	9c818a0e 	bge	r19,r18,2002790 <___vfprintf_internal_r+0x1494>
 2002168:	058001c4 	movi	r22,7
 200216c:	ddc12917 	ldw	r23,1188(sp)
 2002170:	00000306 	br	2002180 <___vfprintf_internal_r+0xe84>
 2002174:	4a400204 	addi	r9,r9,8
 2002178:	94bffc04 	addi	r18,r18,-16
 200217c:	9c81840e 	bge	r19,r18,2002790 <___vfprintf_internal_r+0x1494>
 2002180:	4d000015 	stw	r20,0(r9)
 2002184:	4cc00115 	stw	r19,4(r9)
 2002188:	42000404 	addi	r8,r8,16
 200218c:	18c00044 	addi	r3,r3,1
 2002190:	da011d15 	stw	r8,1140(sp)
 2002194:	d8c11c15 	stw	r3,1136(sp)
 2002198:	b0fff60e 	bge	r22,r3,2002174 <__alt_data_end+0xff002174>
 200219c:	8809883a 	mov	r4,r17
 20021a0:	b80b883a 	mov	r5,r23
 20021a4:	d9811b04 	addi	r6,sp,1132
 20021a8:	20012c80 	call	20012c8 <__sprint_r>
 20021ac:	103d991e 	bne	r2,zero,2001814 <__alt_data_end+0xff001814>
 20021b0:	da011d17 	ldw	r8,1140(sp)
 20021b4:	d8c11c17 	ldw	r3,1136(sp)
 20021b8:	da400404 	addi	r9,sp,16
 20021bc:	003fee06 	br	2002178 <__alt_data_end+0xff002178>
 20021c0:	d8812e17 	ldw	r2,1208(sp)
 20021c4:	d9012817 	ldw	r4,1184(sp)
 20021c8:	112fc83a 	sub	r23,r2,r4
 20021cc:	05ff000e 	bge	zero,r23,2001dd0 <__alt_data_end+0xff001dd0>
 20021d0:	07000404 	movi	fp,16
 20021d4:	05008074 	movhi	r20,513
 20021d8:	a509e184 	addi	r20,r20,10118
 20021dc:	e5c01d0e 	bge	fp,r23,2002254 <___vfprintf_internal_r+0xf58>
 20021e0:	dc812a15 	stw	r18,1192(sp)
 20021e4:	058001c4 	movi	r22,7
 20021e8:	a025883a 	mov	r18,r20
 20021ec:	8029883a 	mov	r20,r16
 20021f0:	dc012917 	ldw	r16,1188(sp)
 20021f4:	00000306 	br	2002204 <___vfprintf_internal_r+0xf08>
 20021f8:	bdfffc04 	addi	r23,r23,-16
 20021fc:	4a400204 	addi	r9,r9,8
 2002200:	e5c0110e 	bge	fp,r23,2002248 <___vfprintf_internal_r+0xf4c>
 2002204:	4c800015 	stw	r18,0(r9)
 2002208:	4f000115 	stw	fp,4(r9)
 200220c:	42000404 	addi	r8,r8,16
 2002210:	18c00044 	addi	r3,r3,1
 2002214:	da011d15 	stw	r8,1140(sp)
 2002218:	d8c11c15 	stw	r3,1136(sp)
 200221c:	b0fff60e 	bge	r22,r3,20021f8 <__alt_data_end+0xff0021f8>
 2002220:	8809883a 	mov	r4,r17
 2002224:	800b883a 	mov	r5,r16
 2002228:	d9811b04 	addi	r6,sp,1132
 200222c:	20012c80 	call	20012c8 <__sprint_r>
 2002230:	103d781e 	bne	r2,zero,2001814 <__alt_data_end+0xff001814>
 2002234:	bdfffc04 	addi	r23,r23,-16
 2002238:	da011d17 	ldw	r8,1140(sp)
 200223c:	d8c11c17 	ldw	r3,1136(sp)
 2002240:	da400404 	addi	r9,sp,16
 2002244:	e5ffef16 	blt	fp,r23,2002204 <__alt_data_end+0xff002204>
 2002248:	a021883a 	mov	r16,r20
 200224c:	9029883a 	mov	r20,r18
 2002250:	dc812a17 	ldw	r18,1192(sp)
 2002254:	4d000015 	stw	r20,0(r9)
 2002258:	4dc00115 	stw	r23,4(r9)
 200225c:	45d1883a 	add	r8,r8,r23
 2002260:	18c00044 	addi	r3,r3,1
 2002264:	da011d15 	stw	r8,1140(sp)
 2002268:	d8c11c15 	stw	r3,1136(sp)
 200226c:	008001c4 	movi	r2,7
 2002270:	10c13616 	blt	r2,r3,200274c <___vfprintf_internal_r+0x1450>
 2002274:	4a400204 	addi	r9,r9,8
 2002278:	003ed506 	br	2001dd0 <__alt_data_end+0xff001dd0>
 200227c:	d9412917 	ldw	r5,1188(sp)
 2002280:	8809883a 	mov	r4,r17
 2002284:	d9811b04 	addi	r6,sp,1132
 2002288:	20012c80 	call	20012c8 <__sprint_r>
 200228c:	103f4226 	beq	r2,zero,2001f98 <__alt_data_end+0xff001f98>
 2002290:	003d6006 	br	2001814 <__alt_data_end+0xff001814>
 2002294:	d9013217 	ldw	r4,1224(sp)
 2002298:	00800044 	movi	r2,1
 200229c:	4cc00015 	stw	r19,0(r9)
 20022a0:	1101000e 	bge	r2,r4,20026a4 <___vfprintf_internal_r+0x13a8>
 20022a4:	00800044 	movi	r2,1
 20022a8:	48800115 	stw	r2,4(r9)
 20022ac:	4091883a 	add	r8,r8,r2
 20022b0:	1887883a 	add	r3,r3,r2
 20022b4:	da011d15 	stw	r8,1140(sp)
 20022b8:	d8c11c15 	stw	r3,1136(sp)
 20022bc:	008001c4 	movi	r2,7
 20022c0:	10c10c16 	blt	r2,r3,20026f4 <___vfprintf_internal_r+0x13f8>
 20022c4:	4a400204 	addi	r9,r9,8
 20022c8:	d8813717 	ldw	r2,1244(sp)
 20022cc:	48800015 	stw	r2,0(r9)
 20022d0:	00800044 	movi	r2,1
 20022d4:	48800115 	stw	r2,4(r9)
 20022d8:	4091883a 	add	r8,r8,r2
 20022dc:	1887883a 	add	r3,r3,r2
 20022e0:	da011d15 	stw	r8,1140(sp)
 20022e4:	d8c11c15 	stw	r3,1136(sp)
 20022e8:	008001c4 	movi	r2,7
 20022ec:	10c10a16 	blt	r2,r3,2002718 <___vfprintf_internal_r+0x141c>
 20022f0:	4c800204 	addi	r18,r9,8
 20022f4:	d9013317 	ldw	r4,1228(sp)
 20022f8:	d9413417 	ldw	r5,1232(sp)
 20022fc:	000d883a 	mov	r6,zero
 2002300:	000f883a 	mov	r7,zero
 2002304:	d8c13b15 	stw	r3,1260(sp)
 2002308:	da013a15 	stw	r8,1256(sp)
 200230c:	200ee3c0 	call	200ee3c <__eqdf2>
 2002310:	d8c13b17 	ldw	r3,1260(sp)
 2002314:	da013a17 	ldw	r8,1256(sp)
 2002318:	1000ba26 	beq	r2,zero,2002604 <___vfprintf_internal_r+0x1308>
 200231c:	d9013217 	ldw	r4,1224(sp)
 2002320:	9cc00044 	addi	r19,r19,1
 2002324:	94c00015 	stw	r19,0(r18)
 2002328:	20bfffc4 	addi	r2,r4,-1
 200232c:	90800115 	stw	r2,4(r18)
 2002330:	4091883a 	add	r8,r8,r2
 2002334:	18c00044 	addi	r3,r3,1
 2002338:	da011d15 	stw	r8,1140(sp)
 200233c:	d8c11c15 	stw	r3,1136(sp)
 2002340:	008001c4 	movi	r2,7
 2002344:	10c0e216 	blt	r2,r3,20026d0 <___vfprintf_internal_r+0x13d4>
 2002348:	94800204 	addi	r18,r18,8
 200234c:	d9013517 	ldw	r4,1236(sp)
 2002350:	d8811fc4 	addi	r2,sp,1151
 2002354:	90800015 	stw	r2,0(r18)
 2002358:	91000115 	stw	r4,4(r18)
 200235c:	4111883a 	add	r8,r8,r4
 2002360:	18c00044 	addi	r3,r3,1
 2002364:	da011d15 	stw	r8,1140(sp)
 2002368:	d8c11c15 	stw	r3,1136(sp)
 200236c:	008001c4 	movi	r2,7
 2002370:	10ff2316 	blt	r2,r3,2002000 <__alt_data_end+0xff002000>
 2002374:	92400204 	addi	r9,r18,8
 2002378:	003ecf06 	br	2001eb8 <__alt_data_end+0xff001eb8>
 200237c:	d9412917 	ldw	r5,1188(sp)
 2002380:	8809883a 	mov	r4,r17
 2002384:	d9811b04 	addi	r6,sp,1132
 2002388:	20012c80 	call	20012c8 <__sprint_r>
 200238c:	103d211e 	bne	r2,zero,2001814 <__alt_data_end+0xff001814>
 2002390:	da011d17 	ldw	r8,1140(sp)
 2002394:	d8c11c17 	ldw	r3,1136(sp)
 2002398:	da400404 	addi	r9,sp,16
 200239c:	003eba06 	br	2001e88 <__alt_data_end+0xff001e88>
 20023a0:	d9412917 	ldw	r5,1188(sp)
 20023a4:	8809883a 	mov	r4,r17
 20023a8:	d9811b04 	addi	r6,sp,1132
 20023ac:	20012c80 	call	20012c8 <__sprint_r>
 20023b0:	103d181e 	bne	r2,zero,2001814 <__alt_data_end+0xff001814>
 20023b4:	da011d17 	ldw	r8,1140(sp)
 20023b8:	d8c11c17 	ldw	r3,1136(sp)
 20023bc:	da400404 	addi	r9,sp,16
 20023c0:	003e8006 	br	2001dc4 <__alt_data_end+0xff001dc4>
 20023c4:	d9412917 	ldw	r5,1188(sp)
 20023c8:	8809883a 	mov	r4,r17
 20023cc:	d9811b04 	addi	r6,sp,1132
 20023d0:	20012c80 	call	20012c8 <__sprint_r>
 20023d4:	103d0f1e 	bne	r2,zero,2001814 <__alt_data_end+0xff001814>
 20023d8:	da011d17 	ldw	r8,1140(sp)
 20023dc:	d8c11c17 	ldw	r3,1136(sp)
 20023e0:	da400404 	addi	r9,sp,16
 20023e4:	003e6a06 	br	2001d90 <__alt_data_end+0xff001d90>
 20023e8:	d9413617 	ldw	r5,1240(sp)
 20023ec:	d8810dc4 	addi	r2,sp,1079
 20023f0:	b8c003cc 	andi	r3,r23,15
 20023f4:	b008973a 	slli	r4,r22,28
 20023f8:	28c7883a 	add	r3,r5,r3
 20023fc:	b82ed13a 	srli	r23,r23,4
 2002400:	18c00003 	ldbu	r3,0(r3)
 2002404:	b02cd13a 	srli	r22,r22,4
 2002408:	25eeb03a 	or	r23,r4,r23
 200240c:	10c00005 	stb	r3,0(r2)
 2002410:	bd86b03a 	or	r3,r23,r22
 2002414:	1027883a 	mov	r19,r2
 2002418:	10bfffc4 	addi	r2,r2,-1
 200241c:	183ff41e 	bne	r3,zero,20023f0 <__alt_data_end+0xff0023f0>
 2002420:	003f1a06 	br	200208c <__alt_data_end+0xff00208c>
 2002424:	d8012b15 	stw	zero,1196(sp)
 2002428:	dcc10e04 	addi	r19,sp,1080
 200242c:	003d3a06 	br	2001918 <__alt_data_end+0xff001918>
 2002430:	b0025426 	beq	r22,zero,2002d84 <___vfprintf_internal_r+0x1a88>
 2002434:	b807883a 	mov	r3,r23
 2002438:	d8810dc4 	addi	r2,sp,1079
 200243c:	882f883a 	mov	r23,r17
 2002440:	04c00244 	movi	r19,9
 2002444:	8023883a 	mov	r17,r16
 2002448:	da412815 	stw	r9,1184(sp)
 200244c:	1821883a 	mov	r16,r3
 2002450:	8009883a 	mov	r4,r16
 2002454:	b00b883a 	mov	r5,r22
 2002458:	01800284 	movi	r6,10
 200245c:	000f883a 	mov	r7,zero
 2002460:	1029883a 	mov	r20,r2
 2002464:	200de700 	call	200de70 <__umoddi3>
 2002468:	10800c04 	addi	r2,r2,48
 200246c:	8009883a 	mov	r4,r16
 2002470:	b00b883a 	mov	r5,r22
 2002474:	a0800005 	stb	r2,0(r20)
 2002478:	01800284 	movi	r6,10
 200247c:	000f883a 	mov	r7,zero
 2002480:	200d8200 	call	200d820 <__udivdi3>
 2002484:	1021883a 	mov	r16,r2
 2002488:	182d883a 	mov	r22,r3
 200248c:	a0bfffc4 	addi	r2,r20,-1
 2002490:	183fef1e 	bne	r3,zero,2002450 <__alt_data_end+0xff002450>
 2002494:	9c3fee36 	bltu	r19,r16,2002450 <__alt_data_end+0xff002450>
 2002498:	da412817 	ldw	r9,1184(sp)
 200249c:	8005883a 	mov	r2,r16
 20024a0:	8821883a 	mov	r16,r17
 20024a4:	b823883a 	mov	r17,r23
 20024a8:	102f883a 	mov	r23,r2
 20024ac:	d8812717 	ldw	r2,1180(sp)
 20024b0:	a4ffffc4 	addi	r19,r20,-1
 20024b4:	bdc00c04 	addi	r23,r23,48
 20024b8:	14c5c83a 	sub	r2,r2,r19
 20024bc:	a5ffffc5 	stb	r23,-1(r20)
 20024c0:	d8812b15 	stw	r2,1196(sp)
 20024c4:	003d1406 	br	2001918 <__alt_data_end+0xff001918>
 20024c8:	00c00044 	movi	r3,1
 20024cc:	bd84b03a 	or	r2,r23,r22
 20024d0:	003d0306 	br	20018e0 <__alt_data_end+0xff0018e0>
 20024d4:	dc812417 	ldw	r18,1168(sp)
 20024d8:	0481140e 	bge	zero,r18,200292c <___vfprintf_internal_r+0x1630>
 20024dc:	d9013217 	ldw	r4,1224(sp)
 20024e0:	4cc00015 	stw	r19,0(r9)
 20024e4:	9100ec16 	blt	r18,r4,2002898 <___vfprintf_internal_r+0x159c>
 20024e8:	49000115 	stw	r4,4(r9)
 20024ec:	4111883a 	add	r8,r8,r4
 20024f0:	18c00044 	addi	r3,r3,1
 20024f4:	da011d15 	stw	r8,1140(sp)
 20024f8:	d8c11c15 	stw	r3,1136(sp)
 20024fc:	008001c4 	movi	r2,7
 2002500:	10c23616 	blt	r2,r3,2002ddc <___vfprintf_internal_r+0x1ae0>
 2002504:	4a400204 	addi	r9,r9,8
 2002508:	d8813217 	ldw	r2,1224(sp)
 200250c:	90a5c83a 	sub	r18,r18,r2
 2002510:	04beae0e 	bge	zero,r18,2001fcc <__alt_data_end+0xff001fcc>
 2002514:	04c00404 	movi	r19,16
 2002518:	d8c11c17 	ldw	r3,1136(sp)
 200251c:	05008074 	movhi	r20,513
 2002520:	a509e184 	addi	r20,r20,10118
 2002524:	9c81dd0e 	bge	r19,r18,2002c9c <___vfprintf_internal_r+0x19a0>
 2002528:	058001c4 	movi	r22,7
 200252c:	ddc12917 	ldw	r23,1188(sp)
 2002530:	00000306 	br	2002540 <___vfprintf_internal_r+0x1244>
 2002534:	4a400204 	addi	r9,r9,8
 2002538:	94bffc04 	addi	r18,r18,-16
 200253c:	9c81d70e 	bge	r19,r18,2002c9c <___vfprintf_internal_r+0x19a0>
 2002540:	4d000015 	stw	r20,0(r9)
 2002544:	4cc00115 	stw	r19,4(r9)
 2002548:	42000404 	addi	r8,r8,16
 200254c:	18c00044 	addi	r3,r3,1
 2002550:	da011d15 	stw	r8,1140(sp)
 2002554:	d8c11c15 	stw	r3,1136(sp)
 2002558:	b0fff60e 	bge	r22,r3,2002534 <__alt_data_end+0xff002534>
 200255c:	8809883a 	mov	r4,r17
 2002560:	b80b883a 	mov	r5,r23
 2002564:	d9811b04 	addi	r6,sp,1132
 2002568:	20012c80 	call	20012c8 <__sprint_r>
 200256c:	103ca91e 	bne	r2,zero,2001814 <__alt_data_end+0xff001814>
 2002570:	da011d17 	ldw	r8,1140(sp)
 2002574:	d8c11c17 	ldw	r3,1136(sp)
 2002578:	da400404 	addi	r9,sp,16
 200257c:	003fee06 	br	2002538 <__alt_data_end+0xff002538>
 2002580:	d9412917 	ldw	r5,1188(sp)
 2002584:	8809883a 	mov	r4,r17
 2002588:	d9811b04 	addi	r6,sp,1132
 200258c:	20012c80 	call	20012c8 <__sprint_r>
 2002590:	103ca01e 	bne	r2,zero,2001814 <__alt_data_end+0xff001814>
 2002594:	da011d17 	ldw	r8,1140(sp)
 2002598:	d8c11c17 	ldw	r3,1136(sp)
 200259c:	da400404 	addi	r9,sp,16
 20025a0:	003dee06 	br	2001d5c <__alt_data_end+0xff001d5c>
 20025a4:	00c00084 	movi	r3,2
 20025a8:	bd84b03a 	or	r2,r23,r22
 20025ac:	d8012585 	stb	zero,1174(sp)
 20025b0:	003ccb06 	br	20018e0 <__alt_data_end+0xff0018e0>
 20025b4:	8080040c 	andi	r2,r16,16
 20025b8:	1000ae26 	beq	r2,zero,2002874 <___vfprintf_internal_r+0x1578>
 20025bc:	d9012d17 	ldw	r4,1204(sp)
 20025c0:	25c00017 	ldw	r23,0(r4)
 20025c4:	21000104 	addi	r4,r4,4
 20025c8:	d9012d15 	stw	r4,1204(sp)
 20025cc:	b82dd7fa 	srai	r22,r23,31
 20025d0:	b005883a 	mov	r2,r22
 20025d4:	003cb906 	br	20018bc <__alt_data_end+0xff0018bc>
 20025d8:	8080040c 	andi	r2,r16,16
 20025dc:	10007026 	beq	r2,zero,20027a0 <___vfprintf_internal_r+0x14a4>
 20025e0:	d8812d17 	ldw	r2,1204(sp)
 20025e4:	002d883a 	mov	r22,zero
 20025e8:	00c00044 	movi	r3,1
 20025ec:	15c00017 	ldw	r23,0(r2)
 20025f0:	10800104 	addi	r2,r2,4
 20025f4:	d8812d15 	stw	r2,1204(sp)
 20025f8:	d8012585 	stb	zero,1174(sp)
 20025fc:	b805883a 	mov	r2,r23
 2002600:	003cb706 	br	20018e0 <__alt_data_end+0xff0018e0>
 2002604:	d8813217 	ldw	r2,1224(sp)
 2002608:	14ffffc4 	addi	r19,r2,-1
 200260c:	04ff4f0e 	bge	zero,r19,200234c <__alt_data_end+0xff00234c>
 2002610:	05800404 	movi	r22,16
 2002614:	05008074 	movhi	r20,513
 2002618:	a509e184 	addi	r20,r20,10118
 200261c:	b4c0470e 	bge	r22,r19,200273c <___vfprintf_internal_r+0x1440>
 2002620:	05c001c4 	movi	r23,7
 2002624:	df012917 	ldw	fp,1188(sp)
 2002628:	00000306 	br	2002638 <___vfprintf_internal_r+0x133c>
 200262c:	94800204 	addi	r18,r18,8
 2002630:	9cfffc04 	addi	r19,r19,-16
 2002634:	b4c0410e 	bge	r22,r19,200273c <___vfprintf_internal_r+0x1440>
 2002638:	95000015 	stw	r20,0(r18)
 200263c:	95800115 	stw	r22,4(r18)
 2002640:	42000404 	addi	r8,r8,16
 2002644:	18c00044 	addi	r3,r3,1
 2002648:	da011d15 	stw	r8,1140(sp)
 200264c:	d8c11c15 	stw	r3,1136(sp)
 2002650:	b8fff60e 	bge	r23,r3,200262c <__alt_data_end+0xff00262c>
 2002654:	8809883a 	mov	r4,r17
 2002658:	e00b883a 	mov	r5,fp
 200265c:	d9811b04 	addi	r6,sp,1132
 2002660:	20012c80 	call	20012c8 <__sprint_r>
 2002664:	103c6b1e 	bne	r2,zero,2001814 <__alt_data_end+0xff001814>
 2002668:	da011d17 	ldw	r8,1140(sp)
 200266c:	d8c11c17 	ldw	r3,1136(sp)
 2002670:	dc800404 	addi	r18,sp,16
 2002674:	003fee06 	br	2002630 <__alt_data_end+0xff002630>
 2002678:	8080040c 	andi	r2,r16,16
 200267c:	10005326 	beq	r2,zero,20027cc <___vfprintf_internal_r+0x14d0>
 2002680:	d8c12d17 	ldw	r3,1204(sp)
 2002684:	002d883a 	mov	r22,zero
 2002688:	1dc00017 	ldw	r23,0(r3)
 200268c:	18c00104 	addi	r3,r3,4
 2002690:	d8c12d15 	stw	r3,1204(sp)
 2002694:	b805883a 	mov	r2,r23
 2002698:	0007883a 	mov	r3,zero
 200269c:	d8012585 	stb	zero,1174(sp)
 20026a0:	003c8f06 	br	20018e0 <__alt_data_end+0xff0018e0>
 20026a4:	8088703a 	and	r4,r16,r2
 20026a8:	203efe1e 	bne	r4,zero,20022a4 <__alt_data_end+0xff0022a4>
 20026ac:	48800115 	stw	r2,4(r9)
 20026b0:	42000044 	addi	r8,r8,1
 20026b4:	18c00044 	addi	r3,r3,1
 20026b8:	da011d15 	stw	r8,1140(sp)
 20026bc:	d8c11c15 	stw	r3,1136(sp)
 20026c0:	008001c4 	movi	r2,7
 20026c4:	10c00216 	blt	r2,r3,20026d0 <___vfprintf_internal_r+0x13d4>
 20026c8:	4c800204 	addi	r18,r9,8
 20026cc:	003f1f06 	br	200234c <__alt_data_end+0xff00234c>
 20026d0:	d9412917 	ldw	r5,1188(sp)
 20026d4:	8809883a 	mov	r4,r17
 20026d8:	d9811b04 	addi	r6,sp,1132
 20026dc:	20012c80 	call	20012c8 <__sprint_r>
 20026e0:	103c4c1e 	bne	r2,zero,2001814 <__alt_data_end+0xff001814>
 20026e4:	dc800404 	addi	r18,sp,16
 20026e8:	da011d17 	ldw	r8,1140(sp)
 20026ec:	d8c11c17 	ldw	r3,1136(sp)
 20026f0:	003f1606 	br	200234c <__alt_data_end+0xff00234c>
 20026f4:	d9412917 	ldw	r5,1188(sp)
 20026f8:	8809883a 	mov	r4,r17
 20026fc:	d9811b04 	addi	r6,sp,1132
 2002700:	20012c80 	call	20012c8 <__sprint_r>
 2002704:	103c431e 	bne	r2,zero,2001814 <__alt_data_end+0xff001814>
 2002708:	da011d17 	ldw	r8,1140(sp)
 200270c:	d8c11c17 	ldw	r3,1136(sp)
 2002710:	da400404 	addi	r9,sp,16
 2002714:	003eec06 	br	20022c8 <__alt_data_end+0xff0022c8>
 2002718:	d9412917 	ldw	r5,1188(sp)
 200271c:	8809883a 	mov	r4,r17
 2002720:	d9811b04 	addi	r6,sp,1132
 2002724:	20012c80 	call	20012c8 <__sprint_r>
 2002728:	103c3a1e 	bne	r2,zero,2001814 <__alt_data_end+0xff001814>
 200272c:	da011d17 	ldw	r8,1140(sp)
 2002730:	d8c11c17 	ldw	r3,1136(sp)
 2002734:	dc800404 	addi	r18,sp,16
 2002738:	003eee06 	br	20022f4 <__alt_data_end+0xff0022f4>
 200273c:	95000015 	stw	r20,0(r18)
 2002740:	94c00115 	stw	r19,4(r18)
 2002744:	44d1883a 	add	r8,r8,r19
 2002748:	003efa06 	br	2002334 <__alt_data_end+0xff002334>
 200274c:	d9412917 	ldw	r5,1188(sp)
 2002750:	8809883a 	mov	r4,r17
 2002754:	d9811b04 	addi	r6,sp,1132
 2002758:	20012c80 	call	20012c8 <__sprint_r>
 200275c:	103c2d1e 	bne	r2,zero,2001814 <__alt_data_end+0xff001814>
 2002760:	da011d17 	ldw	r8,1140(sp)
 2002764:	d8c11c17 	ldw	r3,1136(sp)
 2002768:	da400404 	addi	r9,sp,16
 200276c:	003d9806 	br	2001dd0 <__alt_data_end+0xff001dd0>
 2002770:	8080100c 	andi	r2,r16,64
 2002774:	10011626 	beq	r2,zero,2002bd0 <___vfprintf_internal_r+0x18d4>
 2002778:	d8c12d17 	ldw	r3,1204(sp)
 200277c:	002d883a 	mov	r22,zero
 2002780:	1dc0000b 	ldhu	r23,0(r3)
 2002784:	18c00104 	addi	r3,r3,4
 2002788:	d8c12d15 	stw	r3,1204(sp)
 200278c:	003cc106 	br	2001a94 <__alt_data_end+0xff001a94>
 2002790:	4d000015 	stw	r20,0(r9)
 2002794:	4c800115 	stw	r18,4(r9)
 2002798:	4491883a 	add	r8,r8,r18
 200279c:	003dc006 	br	2001ea0 <__alt_data_end+0xff001ea0>
 20027a0:	8080100c 	andi	r2,r16,64
 20027a4:	10010126 	beq	r2,zero,2002bac <___vfprintf_internal_r+0x18b0>
 20027a8:	d8c12d17 	ldw	r3,1204(sp)
 20027ac:	002d883a 	mov	r22,zero
 20027b0:	1dc0000b 	ldhu	r23,0(r3)
 20027b4:	18c00104 	addi	r3,r3,4
 20027b8:	d8c12d15 	stw	r3,1204(sp)
 20027bc:	b805883a 	mov	r2,r23
 20027c0:	00c00044 	movi	r3,1
 20027c4:	d8012585 	stb	zero,1174(sp)
 20027c8:	003c4506 	br	20018e0 <__alt_data_end+0xff0018e0>
 20027cc:	8080100c 	andi	r2,r16,64
 20027d0:	10010526 	beq	r2,zero,2002be8 <___vfprintf_internal_r+0x18ec>
 20027d4:	d9012d17 	ldw	r4,1204(sp)
 20027d8:	002d883a 	mov	r22,zero
 20027dc:	0007883a 	mov	r3,zero
 20027e0:	25c0000b 	ldhu	r23,0(r4)
 20027e4:	21000104 	addi	r4,r4,4
 20027e8:	d9012d15 	stw	r4,1204(sp)
 20027ec:	b805883a 	mov	r2,r23
 20027f0:	d8012585 	stb	zero,1174(sp)
 20027f4:	003c3a06 	br	20018e0 <__alt_data_end+0xff0018e0>
 20027f8:	d8812d17 	ldw	r2,1204(sp)
 20027fc:	15800017 	ldw	r22,0(r2)
 2002800:	15000117 	ldw	r20,4(r2)
 2002804:	10800204 	addi	r2,r2,8
 2002808:	d8812d15 	stw	r2,1204(sp)
 200280c:	dd813315 	stw	r22,1228(sp)
 2002810:	dd013415 	stw	r20,1232(sp)
 2002814:	003c5906 	br	200197c <__alt_data_end+0xff00197c>
 2002818:	00c00084 	movi	r3,2
 200281c:	d8012585 	stb	zero,1174(sp)
 2002820:	003c2f06 	br	20018e0 <__alt_data_end+0xff0018e0>
 2002824:	ac800007 	ldb	r18,0(r21)
 2002828:	003b1006 	br	200146c <__alt_data_end+0xff00146c>
 200282c:	8080040c 	andi	r2,r16,16
 2002830:	1000091e 	bne	r2,zero,2002858 <___vfprintf_internal_r+0x155c>
 2002834:	8400100c 	andi	r16,r16,64
 2002838:	80000726 	beq	r16,zero,2002858 <___vfprintf_internal_r+0x155c>
 200283c:	d8c12d17 	ldw	r3,1204(sp)
 2002840:	d9012c17 	ldw	r4,1200(sp)
 2002844:	18800017 	ldw	r2,0(r3)
 2002848:	18c00104 	addi	r3,r3,4
 200284c:	d8c12d15 	stw	r3,1204(sp)
 2002850:	1100000d 	sth	r4,0(r2)
 2002854:	003adf06 	br	20013d4 <__alt_data_end+0xff0013d4>
 2002858:	d8c12d17 	ldw	r3,1204(sp)
 200285c:	d9012c17 	ldw	r4,1200(sp)
 2002860:	18800017 	ldw	r2,0(r3)
 2002864:	18c00104 	addi	r3,r3,4
 2002868:	d8c12d15 	stw	r3,1204(sp)
 200286c:	11000015 	stw	r4,0(r2)
 2002870:	003ad806 	br	20013d4 <__alt_data_end+0xff0013d4>
 2002874:	8080100c 	andi	r2,r16,64
 2002878:	1000c526 	beq	r2,zero,2002b90 <___vfprintf_internal_r+0x1894>
 200287c:	d8812d17 	ldw	r2,1204(sp)
 2002880:	15c0000f 	ldh	r23,0(r2)
 2002884:	10800104 	addi	r2,r2,4
 2002888:	d8812d15 	stw	r2,1204(sp)
 200288c:	b82dd7fa 	srai	r22,r23,31
 2002890:	b005883a 	mov	r2,r22
 2002894:	003c0906 	br	20018bc <__alt_data_end+0xff0018bc>
 2002898:	4c800115 	stw	r18,4(r9)
 200289c:	9211883a 	add	r8,r18,r8
 20028a0:	18c00044 	addi	r3,r3,1
 20028a4:	da011d15 	stw	r8,1140(sp)
 20028a8:	d8c11c15 	stw	r3,1136(sp)
 20028ac:	008001c4 	movi	r2,7
 20028b0:	10c14016 	blt	r2,r3,2002db4 <___vfprintf_internal_r+0x1ab8>
 20028b4:	4a400204 	addi	r9,r9,8
 20028b8:	d8813717 	ldw	r2,1244(sp)
 20028bc:	9ca7883a 	add	r19,r19,r18
 20028c0:	48800015 	stw	r2,0(r9)
 20028c4:	00800044 	movi	r2,1
 20028c8:	48800115 	stw	r2,4(r9)
 20028cc:	4091883a 	add	r8,r8,r2
 20028d0:	1887883a 	add	r3,r3,r2
 20028d4:	da011d15 	stw	r8,1140(sp)
 20028d8:	d8c11c15 	stw	r3,1136(sp)
 20028dc:	008001c4 	movi	r2,7
 20028e0:	10c12c16 	blt	r2,r3,2002d94 <___vfprintf_internal_r+0x1a98>
 20028e4:	4a400204 	addi	r9,r9,8
 20028e8:	d9013217 	ldw	r4,1224(sp)
 20028ec:	da011d17 	ldw	r8,1140(sp)
 20028f0:	d8c11c17 	ldw	r3,1136(sp)
 20028f4:	24a5c83a 	sub	r18,r4,r18
 20028f8:	4cc00015 	stw	r19,0(r9)
 20028fc:	003fa506 	br	2002794 <__alt_data_end+0xff002794>
 2002900:	04c08074 	movhi	r19,513
 2002904:	9cc9ce04 	addi	r19,r19,10040
 2002908:	003c2e06 	br	20019c4 <__alt_data_end+0xff0019c4>
 200290c:	d9412917 	ldw	r5,1188(sp)
 2002910:	8809883a 	mov	r4,r17
 2002914:	d9811b04 	addi	r6,sp,1132
 2002918:	20012c80 	call	20012c8 <__sprint_r>
 200291c:	103bbd1e 	bne	r2,zero,2001814 <__alt_data_end+0xff001814>
 2002920:	da011d17 	ldw	r8,1140(sp)
 2002924:	da400404 	addi	r9,sp,16
 2002928:	003df606 	br	2002104 <__alt_data_end+0xff002104>
 200292c:	00808074 	movhi	r2,513
 2002930:	1089dd04 	addi	r2,r2,10100
 2002934:	48800015 	stw	r2,0(r9)
 2002938:	00800044 	movi	r2,1
 200293c:	48800115 	stw	r2,4(r9)
 2002940:	4091883a 	add	r8,r8,r2
 2002944:	1887883a 	add	r3,r3,r2
 2002948:	da011d15 	stw	r8,1140(sp)
 200294c:	d8c11c15 	stw	r3,1136(sp)
 2002950:	008001c4 	movi	r2,7
 2002954:	10c0bc16 	blt	r2,r3,2002c48 <___vfprintf_internal_r+0x194c>
 2002958:	4a400204 	addi	r9,r9,8
 200295c:	9000041e 	bne	r18,zero,2002970 <___vfprintf_internal_r+0x1674>
 2002960:	d8c13217 	ldw	r3,1224(sp)
 2002964:	1800021e 	bne	r3,zero,2002970 <___vfprintf_internal_r+0x1674>
 2002968:	8080004c 	andi	r2,r16,1
 200296c:	103d5226 	beq	r2,zero,2001eb8 <__alt_data_end+0xff001eb8>
 2002970:	d8c11c17 	ldw	r3,1136(sp)
 2002974:	d9013717 	ldw	r4,1244(sp)
 2002978:	00800044 	movi	r2,1
 200297c:	48800115 	stw	r2,4(r9)
 2002980:	49000015 	stw	r4,0(r9)
 2002984:	4091883a 	add	r8,r8,r2
 2002988:	1887883a 	add	r3,r3,r2
 200298c:	da011d15 	stw	r8,1140(sp)
 2002990:	d8c11c15 	stw	r3,1136(sp)
 2002994:	008001c4 	movi	r2,7
 2002998:	10c14516 	blt	r2,r3,2002eb0 <___vfprintf_internal_r+0x1bb4>
 200299c:	4a400204 	addi	r9,r9,8
 20029a0:	04a5c83a 	sub	r18,zero,r18
 20029a4:	0480d70e 	bge	zero,r18,2002d04 <___vfprintf_internal_r+0x1a08>
 20029a8:	05800404 	movi	r22,16
 20029ac:	05008074 	movhi	r20,513
 20029b0:	a509e184 	addi	r20,r20,10118
 20029b4:	b480db0e 	bge	r22,r18,2002d24 <___vfprintf_internal_r+0x1a28>
 20029b8:	05c001c4 	movi	r23,7
 20029bc:	df012917 	ldw	fp,1188(sp)
 20029c0:	00000306 	br	20029d0 <___vfprintf_internal_r+0x16d4>
 20029c4:	4a400204 	addi	r9,r9,8
 20029c8:	94bffc04 	addi	r18,r18,-16
 20029cc:	b480d50e 	bge	r22,r18,2002d24 <___vfprintf_internal_r+0x1a28>
 20029d0:	4d000015 	stw	r20,0(r9)
 20029d4:	4d800115 	stw	r22,4(r9)
 20029d8:	42000404 	addi	r8,r8,16
 20029dc:	18c00044 	addi	r3,r3,1
 20029e0:	da011d15 	stw	r8,1140(sp)
 20029e4:	d8c11c15 	stw	r3,1136(sp)
 20029e8:	b8fff60e 	bge	r23,r3,20029c4 <__alt_data_end+0xff0029c4>
 20029ec:	8809883a 	mov	r4,r17
 20029f0:	e00b883a 	mov	r5,fp
 20029f4:	d9811b04 	addi	r6,sp,1132
 20029f8:	20012c80 	call	20012c8 <__sprint_r>
 20029fc:	103b851e 	bne	r2,zero,2001814 <__alt_data_end+0xff001814>
 2002a00:	da011d17 	ldw	r8,1140(sp)
 2002a04:	d8c11c17 	ldw	r3,1136(sp)
 2002a08:	da400404 	addi	r9,sp,16
 2002a0c:	003fee06 	br	20029c8 <__alt_data_end+0xff0029c8>
 2002a10:	da413c15 	stw	r9,1264(sp)
 2002a14:	2009d140 	call	2009d14 <__isnand>
 2002a18:	da413c17 	ldw	r9,1264(sp)
 2002a1c:	10007e1e 	bne	r2,zero,2002c18 <___vfprintf_internal_r+0x191c>
 2002a20:	00bfffc4 	movi	r2,-1
 2002a24:	e0816a26 	beq	fp,r2,2002fd0 <___vfprintf_internal_r+0x1cd4>
 2002a28:	008019c4 	movi	r2,103
 2002a2c:	90816526 	beq	r18,r2,2002fc4 <___vfprintf_internal_r+0x1cc8>
 2002a30:	008011c4 	movi	r2,71
 2002a34:	90816326 	beq	r18,r2,2002fc4 <___vfprintf_internal_r+0x1cc8>
 2002a38:	80c04014 	ori	r3,r16,256
 2002a3c:	d8c12a15 	stw	r3,1192(sp)
 2002a40:	a0016516 	blt	r20,zero,2002fd8 <___vfprintf_internal_r+0x1cdc>
 2002a44:	d8012f05 	stb	zero,1212(sp)
 2002a48:	00801984 	movi	r2,102
 2002a4c:	9080f226 	beq	r18,r2,2002e18 <___vfprintf_internal_r+0x1b1c>
 2002a50:	00801184 	movi	r2,70
 2002a54:	9080f026 	beq	r18,r2,2002e18 <___vfprintf_internal_r+0x1b1c>
 2002a58:	00801944 	movi	r2,101
 2002a5c:	90818d26 	beq	r18,r2,2003094 <___vfprintf_internal_r+0x1d98>
 2002a60:	00801144 	movi	r2,69
 2002a64:	90818b26 	beq	r18,r2,2003094 <___vfprintf_internal_r+0x1d98>
 2002a68:	e02f883a 	mov	r23,fp
 2002a6c:	d8812404 	addi	r2,sp,1168
 2002a70:	d8800115 	stw	r2,4(sp)
 2002a74:	d8812304 	addi	r2,sp,1164
 2002a78:	d8800215 	stw	r2,8(sp)
 2002a7c:	d8812204 	addi	r2,sp,1160
 2002a80:	ddc00015 	stw	r23,0(sp)
 2002a84:	d8800315 	stw	r2,12(sp)
 2002a88:	8809883a 	mov	r4,r17
 2002a8c:	b00b883a 	mov	r5,r22
 2002a90:	a00d883a 	mov	r6,r20
 2002a94:	01c00084 	movi	r7,2
 2002a98:	da413c15 	stw	r9,1264(sp)
 2002a9c:	2004cd40 	call	2004cd4 <_dtoa_r>
 2002aa0:	1027883a 	mov	r19,r2
 2002aa4:	008019c4 	movi	r2,103
 2002aa8:	da413c17 	ldw	r9,1264(sp)
 2002aac:	9081951e 	bne	r18,r2,2003104 <___vfprintf_internal_r+0x1e08>
 2002ab0:	8080004c 	andi	r2,r16,1
 2002ab4:	10017926 	beq	r2,zero,200309c <___vfprintf_internal_r+0x1da0>
 2002ab8:	00801184 	movi	r2,70
 2002abc:	9dc7883a 	add	r3,r19,r23
 2002ac0:	9080e626 	beq	r18,r2,2002e5c <___vfprintf_internal_r+0x1b60>
 2002ac4:	b009883a 	mov	r4,r22
 2002ac8:	a00b883a 	mov	r5,r20
 2002acc:	000d883a 	mov	r6,zero
 2002ad0:	000f883a 	mov	r7,zero
 2002ad4:	d8c13b15 	stw	r3,1260(sp)
 2002ad8:	da413c15 	stw	r9,1264(sp)
 2002adc:	200ee3c0 	call	200ee3c <__eqdf2>
 2002ae0:	d8c13b17 	ldw	r3,1260(sp)
 2002ae4:	da413c17 	ldw	r9,1264(sp)
 2002ae8:	10000726 	beq	r2,zero,2002b08 <___vfprintf_internal_r+0x180c>
 2002aec:	d8812217 	ldw	r2,1160(sp)
 2002af0:	10c18a2e 	bgeu	r2,r3,200311c <___vfprintf_internal_r+0x1e20>
 2002af4:	01000c04 	movi	r4,48
 2002af8:	11000005 	stb	r4,0(r2)
 2002afc:	10800044 	addi	r2,r2,1
 2002b00:	d8812215 	stw	r2,1160(sp)
 2002b04:	10fffc1e 	bne	r2,r3,2002af8 <__alt_data_end+0xff002af8>
 2002b08:	1cc7c83a 	sub	r3,r3,r19
 2002b0c:	d8c13215 	stw	r3,1224(sp)
 2002b10:	008019c4 	movi	r2,103
 2002b14:	9080fa26 	beq	r18,r2,2002f00 <___vfprintf_internal_r+0x1c04>
 2002b18:	008011c4 	movi	r2,71
 2002b1c:	9080f826 	beq	r18,r2,2002f00 <___vfprintf_internal_r+0x1c04>
 2002b20:	00801984 	movi	r2,102
 2002b24:	90818e1e 	bne	r18,r2,2003160 <___vfprintf_internal_r+0x1e64>
 2002b28:	d8812417 	ldw	r2,1168(sp)
 2002b2c:	d8812b15 	stw	r2,1196(sp)
 2002b30:	00817c0e 	bge	zero,r2,2003124 <___vfprintf_internal_r+0x1e28>
 2002b34:	e000021e 	bne	fp,zero,2002b40 <___vfprintf_internal_r+0x1844>
 2002b38:	8400004c 	andi	r16,r16,1
 2002b3c:	80000426 	beq	r16,zero,2002b50 <___vfprintf_internal_r+0x1854>
 2002b40:	d8812b17 	ldw	r2,1196(sp)
 2002b44:	e2000044 	addi	r8,fp,1
 2002b48:	1205883a 	add	r2,r2,r8
 2002b4c:	d8812b15 	stw	r2,1196(sp)
 2002b50:	d8812815 	stw	r2,1184(sp)
 2002b54:	10010b16 	blt	r2,zero,2002f84 <___vfprintf_internal_r+0x1c88>
 2002b58:	ddc12f07 	ldb	r23,1212(sp)
 2002b5c:	b800e426 	beq	r23,zero,2002ef0 <___vfprintf_internal_r+0x1bf4>
 2002b60:	00800b44 	movi	r2,45
 2002b64:	d8812585 	stb	r2,1174(sp)
 2002b68:	dc012a17 	ldw	r16,1192(sp)
 2002b6c:	d8013115 	stw	zero,1220(sp)
 2002b70:	003b7306 	br	2001940 <__alt_data_end+0xff001940>
 2002b74:	d8812b17 	ldw	r2,1196(sp)
 2002b78:	d8812815 	stw	r2,1184(sp)
 2002b7c:	10005716 	blt	r2,zero,2002cdc <___vfprintf_internal_r+0x19e0>
 2002b80:	d8812583 	ldbu	r2,1174(sp)
 2002b84:	ddc12d15 	stw	r23,1204(sp)
 2002b88:	d8013115 	stw	zero,1220(sp)
 2002b8c:	003b6806 	br	2001930 <__alt_data_end+0xff001930>
 2002b90:	d8c12d17 	ldw	r3,1204(sp)
 2002b94:	1dc00017 	ldw	r23,0(r3)
 2002b98:	18c00104 	addi	r3,r3,4
 2002b9c:	d8c12d15 	stw	r3,1204(sp)
 2002ba0:	b82dd7fa 	srai	r22,r23,31
 2002ba4:	b005883a 	mov	r2,r22
 2002ba8:	003b4406 	br	20018bc <__alt_data_end+0xff0018bc>
 2002bac:	d9012d17 	ldw	r4,1204(sp)
 2002bb0:	002d883a 	mov	r22,zero
 2002bb4:	00c00044 	movi	r3,1
 2002bb8:	25c00017 	ldw	r23,0(r4)
 2002bbc:	21000104 	addi	r4,r4,4
 2002bc0:	d9012d15 	stw	r4,1204(sp)
 2002bc4:	b805883a 	mov	r2,r23
 2002bc8:	d8012585 	stb	zero,1174(sp)
 2002bcc:	003b4406 	br	20018e0 <__alt_data_end+0xff0018e0>
 2002bd0:	d9012d17 	ldw	r4,1204(sp)
 2002bd4:	002d883a 	mov	r22,zero
 2002bd8:	25c00017 	ldw	r23,0(r4)
 2002bdc:	21000104 	addi	r4,r4,4
 2002be0:	d9012d15 	stw	r4,1204(sp)
 2002be4:	003bab06 	br	2001a94 <__alt_data_end+0xff001a94>
 2002be8:	d8812d17 	ldw	r2,1204(sp)
 2002bec:	002d883a 	mov	r22,zero
 2002bf0:	0007883a 	mov	r3,zero
 2002bf4:	15c00017 	ldw	r23,0(r2)
 2002bf8:	10800104 	addi	r2,r2,4
 2002bfc:	d8812d15 	stw	r2,1204(sp)
 2002c00:	d8012585 	stb	zero,1174(sp)
 2002c04:	b805883a 	mov	r2,r23
 2002c08:	003b3506 	br	20018e0 <__alt_data_end+0xff0018e0>
 2002c0c:	00ffffc4 	movi	r3,-1
 2002c10:	b82b883a 	mov	r21,r23
 2002c14:	003a1606 	br	2001470 <__alt_data_end+0xff001470>
 2002c18:	008011c4 	movi	r2,71
 2002c1c:	1480b116 	blt	r2,r18,2002ee4 <___vfprintf_internal_r+0x1be8>
 2002c20:	04c08074 	movhi	r19,513
 2002c24:	9cc9cf04 	addi	r19,r19,10044
 2002c28:	00c000c4 	movi	r3,3
 2002c2c:	00bfdfc4 	movi	r2,-129
 2002c30:	80a0703a 	and	r16,r16,r2
 2002c34:	d8c12815 	stw	r3,1184(sp)
 2002c38:	d8812583 	ldbu	r2,1174(sp)
 2002c3c:	d8c12b15 	stw	r3,1196(sp)
 2002c40:	d8013115 	stw	zero,1220(sp)
 2002c44:	003b3a06 	br	2001930 <__alt_data_end+0xff001930>
 2002c48:	d9412917 	ldw	r5,1188(sp)
 2002c4c:	8809883a 	mov	r4,r17
 2002c50:	d9811b04 	addi	r6,sp,1132
 2002c54:	20012c80 	call	20012c8 <__sprint_r>
 2002c58:	103aee1e 	bne	r2,zero,2001814 <__alt_data_end+0xff001814>
 2002c5c:	dc812417 	ldw	r18,1168(sp)
 2002c60:	da011d17 	ldw	r8,1140(sp)
 2002c64:	da400404 	addi	r9,sp,16
 2002c68:	003f3c06 	br	200295c <__alt_data_end+0xff00295c>
 2002c6c:	ad400044 	addi	r21,r21,1
 2002c70:	84000814 	ori	r16,r16,32
 2002c74:	14800047 	ldb	r18,1(r2)
 2002c78:	0039fc06 	br	200146c <__alt_data_end+0xff00146c>
 2002c7c:	d9412917 	ldw	r5,1188(sp)
 2002c80:	8809883a 	mov	r4,r17
 2002c84:	d9811b04 	addi	r6,sp,1132
 2002c88:	20012c80 	call	20012c8 <__sprint_r>
 2002c8c:	103ae11e 	bne	r2,zero,2001814 <__alt_data_end+0xff001814>
 2002c90:	da011d17 	ldw	r8,1140(sp)
 2002c94:	da400404 	addi	r9,sp,16
 2002c98:	003d2b06 	br	2002148 <__alt_data_end+0xff002148>
 2002c9c:	4d000015 	stw	r20,0(r9)
 2002ca0:	4c800115 	stw	r18,4(r9)
 2002ca4:	4491883a 	add	r8,r8,r18
 2002ca8:	18c00044 	addi	r3,r3,1
 2002cac:	da011d15 	stw	r8,1140(sp)
 2002cb0:	d8c11c15 	stw	r3,1136(sp)
 2002cb4:	008001c4 	movi	r2,7
 2002cb8:	10fcbd16 	blt	r2,r3,2001fb0 <__alt_data_end+0xff001fb0>
 2002cbc:	4a400204 	addi	r9,r9,8
 2002cc0:	003cc206 	br	2001fcc <__alt_data_end+0xff001fcc>
 2002cc4:	da413c15 	stw	r9,1264(sp)
 2002cc8:	200123c0 	call	200123c <strlen>
 2002ccc:	d8812b15 	stw	r2,1196(sp)
 2002cd0:	d8812815 	stw	r2,1184(sp)
 2002cd4:	da413c17 	ldw	r9,1264(sp)
 2002cd8:	103fa90e 	bge	r2,zero,2002b80 <__alt_data_end+0xff002b80>
 2002cdc:	d8012815 	stw	zero,1184(sp)
 2002ce0:	003fa706 	br	2002b80 <__alt_data_end+0xff002b80>
 2002ce4:	d9412917 	ldw	r5,1188(sp)
 2002ce8:	8809883a 	mov	r4,r17
 2002cec:	d9811b04 	addi	r6,sp,1132
 2002cf0:	20012c80 	call	20012c8 <__sprint_r>
 2002cf4:	103ac71e 	bne	r2,zero,2001814 <__alt_data_end+0xff001814>
 2002cf8:	da011d17 	ldw	r8,1140(sp)
 2002cfc:	d8c11c17 	ldw	r3,1136(sp)
 2002d00:	da400404 	addi	r9,sp,16
 2002d04:	d8813217 	ldw	r2,1224(sp)
 2002d08:	4cc00015 	stw	r19,0(r9)
 2002d0c:	48800115 	stw	r2,4(r9)
 2002d10:	4091883a 	add	r8,r8,r2
 2002d14:	003c6206 	br	2001ea0 <__alt_data_end+0xff001ea0>
 2002d18:	00800b44 	movi	r2,45
 2002d1c:	d8812585 	stb	r2,1174(sp)
 2002d20:	003b2406 	br	20019b4 <__alt_data_end+0xff0019b4>
 2002d24:	4d000015 	stw	r20,0(r9)
 2002d28:	4c800115 	stw	r18,4(r9)
 2002d2c:	4491883a 	add	r8,r8,r18
 2002d30:	18c00044 	addi	r3,r3,1
 2002d34:	da011d15 	stw	r8,1140(sp)
 2002d38:	d8c11c15 	stw	r3,1136(sp)
 2002d3c:	008001c4 	movi	r2,7
 2002d40:	10ffe816 	blt	r2,r3,2002ce4 <__alt_data_end+0xff002ce4>
 2002d44:	4a400204 	addi	r9,r9,8
 2002d48:	003fee06 	br	2002d04 <__alt_data_end+0xff002d04>
 2002d4c:	d8c12b15 	stw	r3,1196(sp)
 2002d50:	00800184 	movi	r2,6
 2002d54:	10c0062e 	bgeu	r2,r3,2002d70 <___vfprintf_internal_r+0x1a74>
 2002d58:	d8812b15 	stw	r2,1196(sp)
 2002d5c:	d8812815 	stw	r2,1184(sp)
 2002d60:	ddc12d15 	stw	r23,1204(sp)
 2002d64:	04c08074 	movhi	r19,513
 2002d68:	9cc9db04 	addi	r19,r19,10092
 2002d6c:	0039ca06 	br	2001498 <__alt_data_end+0xff001498>
 2002d70:	d8812b17 	ldw	r2,1196(sp)
 2002d74:	d8812815 	stw	r2,1184(sp)
 2002d78:	103ff90e 	bge	r2,zero,2002d60 <__alt_data_end+0xff002d60>
 2002d7c:	d8012815 	stw	zero,1184(sp)
 2002d80:	003ff706 	br	2002d60 <__alt_data_end+0xff002d60>
 2002d84:	00800244 	movi	r2,9
 2002d88:	15fdaa36 	bltu	r2,r23,2002434 <__alt_data_end+0xff002434>
 2002d8c:	dd010e04 	addi	r20,sp,1080
 2002d90:	003dc606 	br	20024ac <__alt_data_end+0xff0024ac>
 2002d94:	d9412917 	ldw	r5,1188(sp)
 2002d98:	8809883a 	mov	r4,r17
 2002d9c:	d9811b04 	addi	r6,sp,1132
 2002da0:	20012c80 	call	20012c8 <__sprint_r>
 2002da4:	103a9b1e 	bne	r2,zero,2001814 <__alt_data_end+0xff001814>
 2002da8:	dc812417 	ldw	r18,1168(sp)
 2002dac:	da400404 	addi	r9,sp,16
 2002db0:	003ecd06 	br	20028e8 <__alt_data_end+0xff0028e8>
 2002db4:	d9412917 	ldw	r5,1188(sp)
 2002db8:	8809883a 	mov	r4,r17
 2002dbc:	d9811b04 	addi	r6,sp,1132
 2002dc0:	20012c80 	call	20012c8 <__sprint_r>
 2002dc4:	103a931e 	bne	r2,zero,2001814 <__alt_data_end+0xff001814>
 2002dc8:	dc812417 	ldw	r18,1168(sp)
 2002dcc:	da011d17 	ldw	r8,1140(sp)
 2002dd0:	d8c11c17 	ldw	r3,1136(sp)
 2002dd4:	da400404 	addi	r9,sp,16
 2002dd8:	003eb706 	br	20028b8 <__alt_data_end+0xff0028b8>
 2002ddc:	d9412917 	ldw	r5,1188(sp)
 2002de0:	8809883a 	mov	r4,r17
 2002de4:	d9811b04 	addi	r6,sp,1132
 2002de8:	20012c80 	call	20012c8 <__sprint_r>
 2002dec:	103a891e 	bne	r2,zero,2001814 <__alt_data_end+0xff001814>
 2002df0:	dc812417 	ldw	r18,1168(sp)
 2002df4:	da011d17 	ldw	r8,1140(sp)
 2002df8:	da400404 	addi	r9,sp,16
 2002dfc:	003dc206 	br	2002508 <__alt_data_end+0xff002508>
 2002e00:	df012815 	stw	fp,1184(sp)
 2002e04:	d8812583 	ldbu	r2,1174(sp)
 2002e08:	df012b15 	stw	fp,1196(sp)
 2002e0c:	ddc12d15 	stw	r23,1204(sp)
 2002e10:	d8013115 	stw	zero,1220(sp)
 2002e14:	003ac606 	br	2001930 <__alt_data_end+0xff001930>
 2002e18:	d8812404 	addi	r2,sp,1168
 2002e1c:	d8800115 	stw	r2,4(sp)
 2002e20:	d8812304 	addi	r2,sp,1164
 2002e24:	d8800215 	stw	r2,8(sp)
 2002e28:	d8812204 	addi	r2,sp,1160
 2002e2c:	df000015 	stw	fp,0(sp)
 2002e30:	d8800315 	stw	r2,12(sp)
 2002e34:	8809883a 	mov	r4,r17
 2002e38:	b00b883a 	mov	r5,r22
 2002e3c:	a00d883a 	mov	r6,r20
 2002e40:	01c000c4 	movi	r7,3
 2002e44:	da413c15 	stw	r9,1264(sp)
 2002e48:	2004cd40 	call	2004cd4 <_dtoa_r>
 2002e4c:	da413c17 	ldw	r9,1264(sp)
 2002e50:	1027883a 	mov	r19,r2
 2002e54:	1707883a 	add	r3,r2,fp
 2002e58:	e02f883a 	mov	r23,fp
 2002e5c:	99000007 	ldb	r4,0(r19)
 2002e60:	00800c04 	movi	r2,48
 2002e64:	20800326 	beq	r4,r2,2002e74 <___vfprintf_internal_r+0x1b78>
 2002e68:	da812417 	ldw	r10,1168(sp)
 2002e6c:	1a87883a 	add	r3,r3,r10
 2002e70:	003f1406 	br	2002ac4 <__alt_data_end+0xff002ac4>
 2002e74:	b009883a 	mov	r4,r22
 2002e78:	a00b883a 	mov	r5,r20
 2002e7c:	000d883a 	mov	r6,zero
 2002e80:	000f883a 	mov	r7,zero
 2002e84:	d8c13b15 	stw	r3,1260(sp)
 2002e88:	da413c15 	stw	r9,1264(sp)
 2002e8c:	200ee980 	call	200ee98 <__nedf2>
 2002e90:	d8c13b17 	ldw	r3,1260(sp)
 2002e94:	da413c17 	ldw	r9,1264(sp)
 2002e98:	103ff326 	beq	r2,zero,2002e68 <__alt_data_end+0xff002e68>
 2002e9c:	00800044 	movi	r2,1
 2002ea0:	15d5c83a 	sub	r10,r2,r23
 2002ea4:	da812415 	stw	r10,1168(sp)
 2002ea8:	1a87883a 	add	r3,r3,r10
 2002eac:	003f0506 	br	2002ac4 <__alt_data_end+0xff002ac4>
 2002eb0:	d9412917 	ldw	r5,1188(sp)
 2002eb4:	8809883a 	mov	r4,r17
 2002eb8:	d9811b04 	addi	r6,sp,1132
 2002ebc:	20012c80 	call	20012c8 <__sprint_r>
 2002ec0:	103a541e 	bne	r2,zero,2001814 <__alt_data_end+0xff001814>
 2002ec4:	dc812417 	ldw	r18,1168(sp)
 2002ec8:	da011d17 	ldw	r8,1140(sp)
 2002ecc:	d8c11c17 	ldw	r3,1136(sp)
 2002ed0:	da400404 	addi	r9,sp,16
 2002ed4:	003eb206 	br	20029a0 <__alt_data_end+0xff0029a0>
 2002ed8:	b82b883a 	mov	r21,r23
 2002edc:	0007883a 	mov	r3,zero
 2002ee0:	00396306 	br	2001470 <__alt_data_end+0xff001470>
 2002ee4:	04c08074 	movhi	r19,513
 2002ee8:	9cc9d004 	addi	r19,r19,10048
 2002eec:	003f4e06 	br	2002c28 <__alt_data_end+0xff002c28>
 2002ef0:	d8812583 	ldbu	r2,1174(sp)
 2002ef4:	dc012a17 	ldw	r16,1192(sp)
 2002ef8:	d8013115 	stw	zero,1220(sp)
 2002efc:	003a8c06 	br	2001930 <__alt_data_end+0xff001930>
 2002f00:	d8812417 	ldw	r2,1168(sp)
 2002f04:	d8812b15 	stw	r2,1196(sp)
 2002f08:	1029883a 	mov	r20,r2
 2002f0c:	00bfff44 	movi	r2,-3
 2002f10:	a0800116 	blt	r20,r2,2002f18 <___vfprintf_internal_r+0x1c1c>
 2002f14:	e5001d0e 	bge	fp,r20,2002f8c <___vfprintf_internal_r+0x1c90>
 2002f18:	94bfff84 	addi	r18,r18,-2
 2002f1c:	a53fffc4 	addi	r20,r20,-1
 2002f20:	dd012415 	stw	r20,1168(sp)
 2002f24:	dc811fc5 	stb	r18,1151(sp)
 2002f28:	a0007216 	blt	r20,zero,20030f4 <___vfprintf_internal_r+0x1df8>
 2002f2c:	00800ac4 	movi	r2,43
 2002f30:	d8812005 	stb	r2,1152(sp)
 2002f34:	00800244 	movi	r2,9
 2002f38:	15003516 	blt	r2,r20,2003010 <___vfprintf_internal_r+0x1d14>
 2002f3c:	00800c04 	movi	r2,48
 2002f40:	a5000c04 	addi	r20,r20,48
 2002f44:	d8812045 	stb	r2,1153(sp)
 2002f48:	dd012085 	stb	r20,1154(sp)
 2002f4c:	d8c120c4 	addi	r3,sp,1155
 2002f50:	d8811fc4 	addi	r2,sp,1151
 2002f54:	1885c83a 	sub	r2,r3,r2
 2002f58:	d8c13217 	ldw	r3,1224(sp)
 2002f5c:	d8813515 	stw	r2,1236(sp)
 2002f60:	1885883a 	add	r2,r3,r2
 2002f64:	d8812b15 	stw	r2,1196(sp)
 2002f68:	00800044 	movi	r2,1
 2002f6c:	10c0580e 	bge	r2,r3,20030d0 <___vfprintf_internal_r+0x1dd4>
 2002f70:	d8812b17 	ldw	r2,1196(sp)
 2002f74:	10800044 	addi	r2,r2,1
 2002f78:	d8812b15 	stw	r2,1196(sp)
 2002f7c:	d8812815 	stw	r2,1184(sp)
 2002f80:	103ef50e 	bge	r2,zero,2002b58 <__alt_data_end+0xff002b58>
 2002f84:	d8012815 	stw	zero,1184(sp)
 2002f88:	003ef306 	br	2002b58 <__alt_data_end+0xff002b58>
 2002f8c:	d8812b17 	ldw	r2,1196(sp)
 2002f90:	d8c13217 	ldw	r3,1224(sp)
 2002f94:	10c01416 	blt	r2,r3,2002fe8 <___vfprintf_internal_r+0x1cec>
 2002f98:	8400004c 	andi	r16,r16,1
 2002f9c:	80000326 	beq	r16,zero,2002fac <___vfprintf_internal_r+0x1cb0>
 2002fa0:	d8812b17 	ldw	r2,1196(sp)
 2002fa4:	10800044 	addi	r2,r2,1
 2002fa8:	d8812b15 	stw	r2,1196(sp)
 2002fac:	d8812815 	stw	r2,1184(sp)
 2002fb0:	10001416 	blt	r2,zero,2003004 <___vfprintf_internal_r+0x1d08>
 2002fb4:	048019c4 	movi	r18,103
 2002fb8:	003ee706 	br	2002b58 <__alt_data_end+0xff002b58>
 2002fbc:	d8012815 	stw	zero,1184(sp)
 2002fc0:	003b1a06 	br	2001c2c <__alt_data_end+0xff001c2c>
 2002fc4:	e03e9c1e 	bne	fp,zero,2002a38 <__alt_data_end+0xff002a38>
 2002fc8:	07000044 	movi	fp,1
 2002fcc:	003e9a06 	br	2002a38 <__alt_data_end+0xff002a38>
 2002fd0:	07000184 	movi	fp,6
 2002fd4:	003e9806 	br	2002a38 <__alt_data_end+0xff002a38>
 2002fd8:	00c00b44 	movi	r3,45
 2002fdc:	a520003c 	xorhi	r20,r20,32768
 2002fe0:	d8c12f05 	stb	r3,1212(sp)
 2002fe4:	003e9806 	br	2002a48 <__alt_data_end+0xff002a48>
 2002fe8:	05003f0e 	bge	zero,r20,20030e8 <___vfprintf_internal_r+0x1dec>
 2002fec:	05000044 	movi	r20,1
 2002ff0:	d8c13217 	ldw	r3,1224(sp)
 2002ff4:	a0e9883a 	add	r20,r20,r3
 2002ff8:	dd012b15 	stw	r20,1196(sp)
 2002ffc:	dd012815 	stw	r20,1184(sp)
 2003000:	a03fec0e 	bge	r20,zero,2002fb4 <__alt_data_end+0xff002fb4>
 2003004:	d8012815 	stw	zero,1184(sp)
 2003008:	048019c4 	movi	r18,103
 200300c:	003ed206 	br	2002b58 <__alt_data_end+0xff002b58>
 2003010:	d8c11f84 	addi	r3,sp,1150
 2003014:	102f883a 	mov	r23,r2
 2003018:	4839883a 	mov	fp,r9
 200301c:	a009883a 	mov	r4,r20
 2003020:	01400284 	movi	r5,10
 2003024:	182d883a 	mov	r22,r3
 2003028:	200103c0 	call	200103c <__modsi3>
 200302c:	10800c04 	addi	r2,r2,48
 2003030:	a009883a 	mov	r4,r20
 2003034:	b0800005 	stb	r2,0(r22)
 2003038:	01400284 	movi	r5,10
 200303c:	2000fec0 	call	2000fec <__divsi3>
 2003040:	1029883a 	mov	r20,r2
 2003044:	b0ffffc4 	addi	r3,r22,-1
 2003048:	b8bff416 	blt	r23,r2,200301c <__alt_data_end+0xff00301c>
 200304c:	11400c04 	addi	r5,r2,48
 2003050:	b17fffc5 	stb	r5,-1(r22)
 2003054:	d8811fc4 	addi	r2,sp,1151
 2003058:	e013883a 	mov	r9,fp
 200305c:	18803e2e 	bgeu	r3,r2,2003158 <___vfprintf_internal_r+0x1e5c>
 2003060:	b007883a 	mov	r3,r22
 2003064:	d9012044 	addi	r4,sp,1153
 2003068:	00000206 	br	2003074 <___vfprintf_internal_r+0x1d78>
 200306c:	19400003 	ldbu	r5,0(r3)
 2003070:	18c00044 	addi	r3,r3,1
 2003074:	21400005 	stb	r5,0(r4)
 2003078:	21000044 	addi	r4,r4,1
 200307c:	10fffb1e 	bne	r2,r3,200306c <__alt_data_end+0xff00306c>
 2003080:	d8c12004 	addi	r3,sp,1152
 2003084:	1d87c83a 	sub	r3,r3,r22
 2003088:	d9012044 	addi	r4,sp,1153
 200308c:	20c7883a 	add	r3,r4,r3
 2003090:	003fb006 	br	2002f54 <__alt_data_end+0xff002f54>
 2003094:	e5c00044 	addi	r23,fp,1
 2003098:	003e7406 	br	2002a6c <__alt_data_end+0xff002a6c>
 200309c:	d8c12217 	ldw	r3,1160(sp)
 20030a0:	003e9906 	br	2002b08 <__alt_data_end+0xff002b08>
 20030a4:	d9012d17 	ldw	r4,1204(sp)
 20030a8:	ac800043 	ldbu	r18,1(r21)
 20030ac:	b82b883a 	mov	r21,r23
 20030b0:	20c00017 	ldw	r3,0(r4)
 20030b4:	20800104 	addi	r2,r4,4
 20030b8:	d8812d15 	stw	r2,1204(sp)
 20030bc:	18002116 	blt	r3,zero,2003144 <___vfprintf_internal_r+0x1e48>
 20030c0:	94803fcc 	andi	r18,r18,255
 20030c4:	9480201c 	xori	r18,r18,128
 20030c8:	94bfe004 	addi	r18,r18,-128
 20030cc:	0038e706 	br	200146c <__alt_data_end+0xff00146c>
 20030d0:	80a0703a 	and	r16,r16,r2
 20030d4:	803fa61e 	bne	r16,zero,2002f70 <__alt_data_end+0xff002f70>
 20030d8:	d8812b17 	ldw	r2,1196(sp)
 20030dc:	d8812815 	stw	r2,1184(sp)
 20030e0:	103e9d0e 	bge	r2,zero,2002b58 <__alt_data_end+0xff002b58>
 20030e4:	003fa706 	br	2002f84 <__alt_data_end+0xff002f84>
 20030e8:	00800084 	movi	r2,2
 20030ec:	1529c83a 	sub	r20,r2,r20
 20030f0:	003fbf06 	br	2002ff0 <__alt_data_end+0xff002ff0>
 20030f4:	00800b44 	movi	r2,45
 20030f8:	0529c83a 	sub	r20,zero,r20
 20030fc:	d8812005 	stb	r2,1152(sp)
 2003100:	003f8c06 	br	2002f34 <__alt_data_end+0xff002f34>
 2003104:	008011c4 	movi	r2,71
 2003108:	90be6926 	beq	r18,r2,2002ab0 <__alt_data_end+0xff002ab0>
 200310c:	003e6a06 	br	2002ab8 <__alt_data_end+0xff002ab8>
 2003110:	00bfffc4 	movi	r2,-1
 2003114:	d8812c15 	stw	r2,1200(sp)
 2003118:	0039ad06 	br	20017d0 <__alt_data_end+0xff0017d0>
 200311c:	1007883a 	mov	r3,r2
 2003120:	003e7906 	br	2002b08 <__alt_data_end+0xff002b08>
 2003124:	e000021e 	bne	fp,zero,2003130 <___vfprintf_internal_r+0x1e34>
 2003128:	8400004c 	andi	r16,r16,1
 200312c:	80000e26 	beq	r16,zero,2003168 <___vfprintf_internal_r+0x1e6c>
 2003130:	e7000084 	addi	fp,fp,2
 2003134:	df012b15 	stw	fp,1196(sp)
 2003138:	df012815 	stw	fp,1184(sp)
 200313c:	e03e860e 	bge	fp,zero,2002b58 <__alt_data_end+0xff002b58>
 2003140:	003f9006 	br	2002f84 <__alt_data_end+0xff002f84>
 2003144:	94803fcc 	andi	r18,r18,255
 2003148:	9480201c 	xori	r18,r18,128
 200314c:	00ffffc4 	movi	r3,-1
 2003150:	94bfe004 	addi	r18,r18,-128
 2003154:	0038c506 	br	200146c <__alt_data_end+0xff00146c>
 2003158:	d8c12044 	addi	r3,sp,1153
 200315c:	003f7d06 	br	2002f54 <__alt_data_end+0xff002f54>
 2003160:	dd012417 	ldw	r20,1168(sp)
 2003164:	003f6d06 	br	2002f1c <__alt_data_end+0xff002f1c>
 2003168:	00c00044 	movi	r3,1
 200316c:	d8c12815 	stw	r3,1184(sp)
 2003170:	d8c12b15 	stw	r3,1196(sp)
 2003174:	003e7806 	br	2002b58 <__alt_data_end+0xff002b58>

02003178 <__vfprintf_internal>:
 2003178:	00808074 	movhi	r2,513
 200317c:	1091e904 	addi	r2,r2,18340
 2003180:	2007883a 	mov	r3,r4
 2003184:	11000017 	ldw	r4,0(r2)
 2003188:	2805883a 	mov	r2,r5
 200318c:	300f883a 	mov	r7,r6
 2003190:	180b883a 	mov	r5,r3
 2003194:	100d883a 	mov	r6,r2
 2003198:	20012fc1 	jmpi	20012fc <___vfprintf_internal_r>

0200319c <__svfscanf_r>:
 200319c:	deff4c04 	addi	sp,sp,-720
 20031a0:	ddc0b115 	stw	r23,708(sp)
 20031a4:	dd00ae15 	stw	r20,696(sp)
 20031a8:	dcc0ad15 	stw	r19,692(sp)
 20031ac:	dc80ac15 	stw	r18,688(sp)
 20031b0:	dc40ab15 	stw	r17,684(sp)
 20031b4:	dc00aa15 	stw	r16,680(sp)
 20031b8:	dfc0b315 	stw	ra,716(sp)
 20031bc:	df00b215 	stw	fp,712(sp)
 20031c0:	dd80b015 	stw	r22,704(sp)
 20031c4:	dd40af15 	stw	r21,700(sp)
 20031c8:	30800007 	ldb	r2,0(r6)
 20031cc:	002f883a 	mov	r23,zero
 20031d0:	d9c09c15 	stw	r7,624(sp)
 20031d4:	d800a015 	stw	zero,640(sp)
 20031d8:	d8009f15 	stw	zero,636(sp)
 20031dc:	d8009e15 	stw	zero,632(sp)
 20031e0:	d8809b15 	stw	r2,620(sp)
 20031e4:	2023883a 	mov	r17,r4
 20031e8:	04808074 	movhi	r18,513
 20031ec:	9491e704 	addi	r18,r18,18332
 20031f0:	b829883a 	mov	r20,r23
 20031f4:	2827883a 	mov	r19,r5
 20031f8:	34000044 	addi	r16,r6,1
 20031fc:	10002426 	beq	r2,zero,2003290 <__svfscanf_r+0xf4>
 2003200:	95400017 	ldw	r21,0(r18)
 2003204:	a887883a 	add	r3,r21,r2
 2003208:	18c00003 	ldbu	r3,0(r3)
 200320c:	18c0020c 	andi	r3,r3,8
 2003210:	18c03fcc 	andi	r3,r3,255
 2003214:	18c0201c 	xori	r3,r3,128
 2003218:	18ffe004 	addi	r3,r3,-128
 200321c:	18002926 	beq	r3,zero,20032c4 <__svfscanf_r+0x128>
 2003220:	98800117 	ldw	r2,4(r19)
 2003224:	0080110e 	bge	zero,r2,200326c <__svfscanf_r+0xd0>
 2003228:	98c00017 	ldw	r3,0(r19)
 200322c:	91000017 	ldw	r4,0(r18)
 2003230:	18800003 	ldbu	r2,0(r3)
 2003234:	2085883a 	add	r2,r4,r2
 2003238:	10800003 	ldbu	r2,0(r2)
 200323c:	1080020c 	andi	r2,r2,8
 2003240:	10803fcc 	andi	r2,r2,255
 2003244:	1080201c 	xori	r2,r2,128
 2003248:	10bfe004 	addi	r2,r2,-128
 200324c:	10000b26 	beq	r2,zero,200327c <__svfscanf_r+0xe0>
 2003250:	98800117 	ldw	r2,4(r19)
 2003254:	18c00044 	addi	r3,r3,1
 2003258:	98c00015 	stw	r3,0(r19)
 200325c:	10bfffc4 	addi	r2,r2,-1
 2003260:	98800115 	stw	r2,4(r19)
 2003264:	a5000044 	addi	r20,r20,1
 2003268:	00bfef16 	blt	zero,r2,2003228 <__alt_data_end+0xff003228>
 200326c:	8809883a 	mov	r4,r17
 2003270:	980b883a 	mov	r5,r19
 2003274:	2009af00 	call	2009af0 <__srefill_r>
 2003278:	103feb26 	beq	r2,zero,2003228 <__alt_data_end+0xff003228>
 200327c:	800d883a 	mov	r6,r16
 2003280:	30800007 	ldb	r2,0(r6)
 2003284:	34000044 	addi	r16,r6,1
 2003288:	d8809b15 	stw	r2,620(sp)
 200328c:	103fdc1e 	bne	r2,zero,2003200 <__alt_data_end+0xff003200>
 2003290:	d8809e17 	ldw	r2,632(sp)
 2003294:	dfc0b317 	ldw	ra,716(sp)
 2003298:	df00b217 	ldw	fp,712(sp)
 200329c:	ddc0b117 	ldw	r23,708(sp)
 20032a0:	dd80b017 	ldw	r22,704(sp)
 20032a4:	dd40af17 	ldw	r21,700(sp)
 20032a8:	dd00ae17 	ldw	r20,696(sp)
 20032ac:	dcc0ad17 	ldw	r19,692(sp)
 20032b0:	dc80ac17 	ldw	r18,688(sp)
 20032b4:	dc40ab17 	ldw	r17,684(sp)
 20032b8:	dc00aa17 	ldw	r16,680(sp)
 20032bc:	dec0b404 	addi	sp,sp,720
 20032c0:	f800283a 	ret
 20032c4:	00c00944 	movi	r3,37
 20032c8:	10c00e26 	beq	r2,r3,2003304 <__svfscanf_r+0x168>
 20032cc:	98800117 	ldw	r2,4(r19)
 20032d0:	0080e40e 	bge	zero,r2,2003664 <__svfscanf_r+0x4c8>
 20032d4:	98800017 	ldw	r2,0(r19)
 20032d8:	80ffffc7 	ldb	r3,-1(r16)
 20032dc:	11000003 	ldbu	r4,0(r2)
 20032e0:	20ffeb1e 	bne	r4,r3,2003290 <__alt_data_end+0xff003290>
 20032e4:	98c00117 	ldw	r3,4(r19)
 20032e8:	10800044 	addi	r2,r2,1
 20032ec:	98800015 	stw	r2,0(r19)
 20032f0:	18bfffc4 	addi	r2,r3,-1
 20032f4:	98800115 	stw	r2,4(r19)
 20032f8:	a5000044 	addi	r20,r20,1
 20032fc:	800d883a 	mov	r6,r16
 2003300:	003fdf06 	br	2003280 <__alt_data_end+0xff003280>
 2003304:	0039883a 	mov	fp,zero
 2003308:	35c00043 	ldbu	r23,1(r6)
 200330c:	002d883a 	mov	r22,zero
 2003310:	00c01e04 	movi	r3,120
 2003314:	01801b04 	movi	r6,108
 2003318:	e009883a 	mov	r4,fp
 200331c:	b8803fcc 	andi	r2,r23,255
 2003320:	87000044 	addi	fp,r16,1
 2003324:	18804f2e 	bgeu	r3,r2,2003464 <__svfscanf_r+0x2c8>
 2003328:	bdc03fcc 	andi	r23,r23,255
 200332c:	bdc0201c 	xori	r23,r23,128
 2003330:	bdffe004 	addi	r23,r23,-128
 2003334:	adeb883a 	add	r21,r21,r23
 2003338:	a8800003 	ldbu	r2,0(r21)
 200333c:	df009d15 	stw	fp,628(sp)
 2003340:	2039883a 	mov	fp,r4
 2003344:	1080004c 	andi	r2,r2,1
 2003348:	1002d926 	beq	r2,zero,2003eb0 <__svfscanf_r+0xd14>
 200334c:	b5800054 	ori	r22,r22,1
 2003350:	00808074 	movhi	r2,513
 2003354:	10ade704 	addi	r2,r2,-18532
 2003358:	00c00284 	movi	r3,10
 200335c:	d880a015 	stw	r2,640(sp)
 2003360:	d8c09f15 	stw	r3,636(sp)
 2003364:	040000c4 	movi	r16,3
 2003368:	98800117 	ldw	r2,4(r19)
 200336c:	0081bd0e 	bge	zero,r2,2003a64 <__svfscanf_r+0x8c8>
 2003370:	b080100c 	andi	r2,r22,64
 2003374:	1000ce26 	beq	r2,zero,20036b0 <__svfscanf_r+0x514>
 2003378:	00800084 	movi	r2,2
 200337c:	80818426 	beq	r16,r2,2003990 <__svfscanf_r+0x7f4>
 2003380:	1400f716 	blt	r2,r16,2003760 <__svfscanf_r+0x5c4>
 2003384:	00800044 	movi	r2,1
 2003388:	8080dc26 	beq	r16,r2,20036fc <__svfscanf_r+0x560>
 200338c:	e000011e 	bne	fp,zero,2003394 <__svfscanf_r+0x1f8>
 2003390:	07000044 	movi	fp,1
 2003394:	b080004c 	andi	r2,r22,1
 2003398:	10022826 	beq	r2,zero,2003c3c <__svfscanf_r+0xaa0>
 200339c:	b5c0040c 	andi	r23,r22,16
 20033a0:	b804601e 	bne	r23,zero,2004524 <__svfscanf_r+0x1388>
 20033a4:	d8c09c17 	ldw	r3,624(sp)
 20033a8:	1d800017 	ldw	r22,0(r3)
 20033ac:	18c00104 	addi	r3,r3,4
 20033b0:	d8c09c15 	stw	r3,624(sp)
 20033b4:	0021883a 	mov	r16,zero
 20033b8:	dd409904 	addi	r21,sp,612
 20033bc:	01008074 	movhi	r4,513
 20033c0:	2111ea04 	addi	r4,r4,18344
 20033c4:	20800017 	ldw	r2,0(r4)
 20033c8:	8080aa26 	beq	r16,r2,2003674 <__svfscanf_r+0x4d8>
 20033cc:	98800017 	ldw	r2,0(r19)
 20033d0:	9a000117 	ldw	r8,4(r19)
 20033d4:	d9400104 	addi	r5,sp,4
 20033d8:	11c00003 	ldbu	r7,0(r2)
 20033dc:	423fffc4 	addi	r8,r8,-1
 20033e0:	10800044 	addi	r2,r2,1
 20033e4:	2c07883a 	add	r3,r5,r16
 20033e8:	a809883a 	mov	r4,r21
 20033ec:	000b883a 	mov	r5,zero
 20033f0:	01800204 	movi	r6,8
 20033f4:	9a000115 	stw	r8,4(r19)
 20033f8:	98800015 	stw	r2,0(r19)
 20033fc:	19c00005 	stb	r7,0(r3)
 2003400:	84000044 	addi	r16,r16,1
 2003404:	20083ac0 	call	20083ac <memset>
 2003408:	8809883a 	mov	r4,r17
 200340c:	dd400015 	stw	r21,0(sp)
 2003410:	b00b883a 	mov	r5,r22
 2003414:	d9800104 	addi	r6,sp,4
 2003418:	800f883a 	mov	r7,r16
 200341c:	2007f000 	call	2007f00 <_mbrtowc_r>
 2003420:	00ffffc4 	movi	r3,-1
 2003424:	10c09326 	beq	r2,r3,2003674 <__svfscanf_r+0x4d8>
 2003428:	1003281e 	bne	r2,zero,20040cc <__svfscanf_r+0xf30>
 200342c:	b800011e 	bne	r23,zero,2003434 <__svfscanf_r+0x298>
 2003430:	b0000015 	stw	zero,0(r22)
 2003434:	a429883a 	add	r20,r20,r16
 2003438:	e73fffc4 	addi	fp,fp,-1
 200343c:	b803281e 	bne	r23,zero,20040e0 <__svfscanf_r+0xf44>
 2003440:	b5800104 	addi	r22,r22,4
 2003444:	0021883a 	mov	r16,zero
 2003448:	98800117 	ldw	r2,4(r19)
 200344c:	00820b0e 	bge	zero,r2,2003c7c <__svfscanf_r+0xae0>
 2003450:	e03fda1e 	bne	fp,zero,20033bc <__alt_data_end+0xff0033bc>
 2003454:	b8012226 	beq	r23,zero,20038e0 <__svfscanf_r+0x744>
 2003458:	dc009d17 	ldw	r16,628(sp)
 200345c:	800d883a 	mov	r6,r16
 2003460:	003f8706 	br	2003280 <__alt_data_end+0xff003280>
 2003464:	1085883a 	add	r2,r2,r2
 2003468:	1085883a 	add	r2,r2,r2
 200346c:	01408034 	movhi	r5,512
 2003470:	294d2004 	addi	r5,r5,13440
 2003474:	1145883a 	add	r2,r2,r5
 2003478:	10800017 	ldw	r2,0(r2)
 200347c:	1000683a 	jmp	r2
 2003480:	02003694 	movui	r8,218
 2003484:	02003328 	cmpgeui	r8,zero,204
 2003488:	02003328 	cmpgeui	r8,zero,204
 200348c:	02003328 	cmpgeui	r8,zero,204
 2003490:	02003328 	cmpgeui	r8,zero,204
 2003494:	02003328 	cmpgeui	r8,zero,204
 2003498:	02003328 	cmpgeui	r8,zero,204
 200349c:	02003328 	cmpgeui	r8,zero,204
 20034a0:	02003328 	cmpgeui	r8,zero,204
 20034a4:	02003328 	cmpgeui	r8,zero,204
 20034a8:	02003328 	cmpgeui	r8,zero,204
 20034ac:	02003328 	cmpgeui	r8,zero,204
 20034b0:	02003328 	cmpgeui	r8,zero,204
 20034b4:	02003328 	cmpgeui	r8,zero,204
 20034b8:	02003328 	cmpgeui	r8,zero,204
 20034bc:	02003328 	cmpgeui	r8,zero,204
 20034c0:	02003328 	cmpgeui	r8,zero,204
 20034c4:	02003328 	cmpgeui	r8,zero,204
 20034c8:	02003328 	cmpgeui	r8,zero,204
 20034cc:	02003328 	cmpgeui	r8,zero,204
 20034d0:	02003328 	cmpgeui	r8,zero,204
 20034d4:	02003328 	cmpgeui	r8,zero,204
 20034d8:	02003328 	cmpgeui	r8,zero,204
 20034dc:	02003328 	cmpgeui	r8,zero,204
 20034e0:	02003328 	cmpgeui	r8,zero,204
 20034e4:	02003328 	cmpgeui	r8,zero,204
 20034e8:	02003328 	cmpgeui	r8,zero,204
 20034ec:	02003328 	cmpgeui	r8,zero,204
 20034f0:	02003328 	cmpgeui	r8,zero,204
 20034f4:	02003328 	cmpgeui	r8,zero,204
 20034f8:	02003328 	cmpgeui	r8,zero,204
 20034fc:	02003328 	cmpgeui	r8,zero,204
 2003500:	02003328 	cmpgeui	r8,zero,204
 2003504:	02003328 	cmpgeui	r8,zero,204
 2003508:	02003328 	cmpgeui	r8,zero,204
 200350c:	02003328 	cmpgeui	r8,zero,204
 2003510:	02003328 	cmpgeui	r8,zero,204
 2003514:	02003f64 	muli	r8,zero,253
 2003518:	02003328 	cmpgeui	r8,zero,204
 200351c:	02003328 	cmpgeui	r8,zero,204
 2003520:	02003328 	cmpgeui	r8,zero,204
 2003524:	02003328 	cmpgeui	r8,zero,204
 2003528:	02003f70 	cmpltui	r8,zero,253
 200352c:	02003328 	cmpgeui	r8,zero,204
 2003530:	02003328 	cmpgeui	r8,zero,204
 2003534:	02003328 	cmpgeui	r8,zero,204
 2003538:	02003328 	cmpgeui	r8,zero,204
 200353c:	02003328 	cmpgeui	r8,zero,204
 2003540:	02003f00 	call	2003f0 <__alt_mem_onchip_memory2_0+0x2003f0>
 2003544:	02003f00 	call	2003f0 <__alt_mem_onchip_memory2_0+0x2003f0>
 2003548:	02003f00 	call	2003f0 <__alt_mem_onchip_memory2_0+0x2003f0>
 200354c:	02003f00 	call	2003f0 <__alt_mem_onchip_memory2_0+0x2003f0>
 2003550:	02003f00 	call	2003f0 <__alt_mem_onchip_memory2_0+0x2003f0>
 2003554:	02003f00 	call	2003f0 <__alt_mem_onchip_memory2_0+0x2003f0>
 2003558:	02003f00 	call	2003f0 <__alt_mem_onchip_memory2_0+0x2003f0>
 200355c:	02003f00 	call	2003f0 <__alt_mem_onchip_memory2_0+0x2003f0>
 2003560:	02003f00 	call	2003f0 <__alt_mem_onchip_memory2_0+0x2003f0>
 2003564:	02003f00 	call	2003f0 <__alt_mem_onchip_memory2_0+0x2003f0>
 2003568:	02003328 	cmpgeui	r8,zero,204
 200356c:	02003328 	cmpgeui	r8,zero,204
 2003570:	02003328 	cmpgeui	r8,zero,204
 2003574:	02003328 	cmpgeui	r8,zero,204
 2003578:	02003328 	cmpgeui	r8,zero,204
 200357c:	02003328 	cmpgeui	r8,zero,204
 2003580:	02003328 	cmpgeui	r8,zero,204
 2003584:	02003328 	cmpgeui	r8,zero,204
 2003588:	02003328 	cmpgeui	r8,zero,204
 200358c:	02003328 	cmpgeui	r8,zero,204
 2003590:	02003f38 	rdprs	r8,zero,252
 2003594:	02003f44 	movi	r8,253
 2003598:	02003328 	cmpgeui	r8,zero,204
 200359c:	02003f44 	movi	r8,253
 20035a0:	02003328 	cmpgeui	r8,zero,204
 20035a4:	02003328 	cmpgeui	r8,zero,204
 20035a8:	02003328 	cmpgeui	r8,zero,204
 20035ac:	02003328 	cmpgeui	r8,zero,204
 20035b0:	02003f54 	movui	r8,253
 20035b4:	02003328 	cmpgeui	r8,zero,204
 20035b8:	02003328 	cmpgeui	r8,zero,204
 20035bc:	02003f80 	call	2003f8 <__alt_mem_onchip_memory2_0+0x2003f8>
 20035c0:	02003328 	cmpgeui	r8,zero,204
 20035c4:	02003328 	cmpgeui	r8,zero,204
 20035c8:	02003328 	cmpgeui	r8,zero,204
 20035cc:	02003328 	cmpgeui	r8,zero,204
 20035d0:	02003328 	cmpgeui	r8,zero,204
 20035d4:	02003328 	cmpgeui	r8,zero,204
 20035d8:	02003328 	cmpgeui	r8,zero,204
 20035dc:	02003328 	cmpgeui	r8,zero,204
 20035e0:	02003fa8 	cmpgeui	r8,zero,254
 20035e4:	02003328 	cmpgeui	r8,zero,204
 20035e8:	02003328 	cmpgeui	r8,zero,204
 20035ec:	02003fd0 	cmplti	r8,zero,255
 20035f0:	02003328 	cmpgeui	r8,zero,204
 20035f4:	02003328 	cmpgeui	r8,zero,204
 20035f8:	02003328 	cmpgeui	r8,zero,204
 20035fc:	02003328 	cmpgeui	r8,zero,204
 2003600:	02003328 	cmpgeui	r8,zero,204
 2003604:	02003328 	cmpgeui	r8,zero,204
 2003608:	02003328 	cmpgeui	r8,zero,204
 200360c:	02003ff4 	movhi	r8,255
 2003610:	02004008 	cmpgei	r8,zero,256
 2003614:	02003f44 	movi	r8,253
 2003618:	02003f44 	movi	r8,253
 200361c:	02003f44 	movi	r8,253
 2003620:	02004014 	movui	r8,256
 2003624:	02004024 	muli	r8,zero,256
 2003628:	02003328 	cmpgeui	r8,zero,204
 200362c:	02003328 	cmpgeui	r8,zero,204
 2003630:	02004044 	movi	r8,257
 2003634:	02003328 	cmpgeui	r8,zero,204
 2003638:	02004064 	muli	r8,zero,257
 200363c:	02004098 	cmpnei	r8,zero,258
 2003640:	020040a4 	muli	r8,zero,258
 2003644:	02003328 	cmpgeui	r8,zero,204
 2003648:	02003328 	cmpgeui	r8,zero,204
 200364c:	02003ecc 	andi	r8,zero,251
 2003650:	02003328 	cmpgeui	r8,zero,204
 2003654:	02003edc 	xori	r8,zero,251
 2003658:	02003328 	cmpgeui	r8,zero,204
 200365c:	02003328 	cmpgeui	r8,zero,204
 2003660:	02003fa8 	cmpgeui	r8,zero,254
 2003664:	8809883a 	mov	r4,r17
 2003668:	980b883a 	mov	r5,r19
 200366c:	2009af00 	call	2009af0 <__srefill_r>
 2003670:	103f1826 	beq	r2,zero,20032d4 <__alt_data_end+0xff0032d4>
 2003674:	d8809e17 	ldw	r2,632(sp)
 2003678:	10000626 	beq	r2,zero,2003694 <__svfscanf_r+0x4f8>
 200367c:	9880030b 	ldhu	r2,12(r19)
 2003680:	1080100c 	andi	r2,r2,64
 2003684:	10bfffcc 	andi	r2,r2,65535
 2003688:	10a0001c 	xori	r2,r2,32768
 200368c:	10a00004 	addi	r2,r2,-32768
 2003690:	103eff26 	beq	r2,zero,2003290 <__alt_data_end+0xff003290>
 2003694:	00bfffc4 	movi	r2,-1
 2003698:	d8809e15 	stw	r2,632(sp)
 200369c:	003efc06 	br	2003290 <__alt_data_end+0xff003290>
 20036a0:	8809883a 	mov	r4,r17
 20036a4:	980b883a 	mov	r5,r19
 20036a8:	2009af00 	call	2009af0 <__srefill_r>
 20036ac:	103ff11e 	bne	r2,zero,2003674 <__alt_data_end+0xff003674>
 20036b0:	91400017 	ldw	r5,0(r18)
 20036b4:	98800017 	ldw	r2,0(r19)
 20036b8:	00000206 	br	20036c4 <__svfscanf_r+0x528>
 20036bc:	10800044 	addi	r2,r2,1
 20036c0:	98800015 	stw	r2,0(r19)
 20036c4:	10c00003 	ldbu	r3,0(r2)
 20036c8:	28c7883a 	add	r3,r5,r3
 20036cc:	18c00003 	ldbu	r3,0(r3)
 20036d0:	18c0020c 	andi	r3,r3,8
 20036d4:	18c03fcc 	andi	r3,r3,255
 20036d8:	18c0201c 	xori	r3,r3,128
 20036dc:	18ffe004 	addi	r3,r3,-128
 20036e0:	183f2526 	beq	r3,zero,2003378 <__alt_data_end+0xff003378>
 20036e4:	98c00117 	ldw	r3,4(r19)
 20036e8:	a5000044 	addi	r20,r20,1
 20036ec:	18ffffc4 	addi	r3,r3,-1
 20036f0:	98c00115 	stw	r3,4(r19)
 20036f4:	00fff116 	blt	zero,r3,20036bc <__alt_data_end+0xff0036bc>
 20036f8:	003fe906 	br	20036a0 <__alt_data_end+0xff0036a0>
 20036fc:	e000011e 	bne	fp,zero,2003704 <__svfscanf_r+0x568>
 2003700:	073fffc4 	movi	fp,-1
 2003704:	b580040c 	andi	r22,r22,16
 2003708:	b0016826 	beq	r22,zero,2003cac <__svfscanf_r+0xb10>
 200370c:	98800017 	ldw	r2,0(r19)
 2003710:	0021883a 	mov	r16,zero
 2003714:	dd805884 	addi	r22,sp,354
 2003718:	10c00003 	ldbu	r3,0(r2)
 200371c:	b0c7883a 	add	r3,r22,r3
 2003720:	18c00007 	ldb	r3,0(r3)
 2003724:	18039726 	beq	r3,zero,2004584 <__svfscanf_r+0x13e8>
 2003728:	98c00117 	ldw	r3,4(r19)
 200372c:	10800044 	addi	r2,r2,1
 2003730:	84000044 	addi	r16,r16,1
 2003734:	18ffffc4 	addi	r3,r3,-1
 2003738:	98c00115 	stw	r3,4(r19)
 200373c:	98800015 	stw	r2,0(r19)
 2003740:	e4008f26 	beq	fp,r16,2003980 <__svfscanf_r+0x7e4>
 2003744:	00fff416 	blt	zero,r3,2003718 <__alt_data_end+0xff003718>
 2003748:	8809883a 	mov	r4,r17
 200374c:	980b883a 	mov	r5,r19
 2003750:	2009af00 	call	2009af0 <__srefill_r>
 2003754:	10008a1e 	bne	r2,zero,2003980 <__svfscanf_r+0x7e4>
 2003758:	98800017 	ldw	r2,0(r19)
 200375c:	003fee06 	br	2003718 <__alt_data_end+0xff003718>
 2003760:	008000c4 	movi	r2,3
 2003764:	80806426 	beq	r16,r2,20038f8 <__svfscanf_r+0x75c>
 2003768:	00800104 	movi	r2,4
 200376c:	80bf071e 	bne	r16,r2,200338c <__alt_data_end+0xff00338c>
 2003770:	e0bfffc4 	addi	r2,fp,-1
 2003774:	01005704 	movi	r4,348
 2003778:	20814736 	bltu	r4,r2,2003c98 <__svfscanf_r+0xafc>
 200377c:	0017883a 	mov	r11,zero
 2003780:	b581e014 	ori	r22,r22,1920
 2003784:	0021883a 	mov	r16,zero
 2003788:	d800a115 	stw	zero,644(sp)
 200378c:	d800a315 	stw	zero,652(sp)
 2003790:	002b883a 	mov	r21,zero
 2003794:	d800a215 	stw	zero,648(sp)
 2003798:	ddc00104 	addi	r23,sp,4
 200379c:	000d883a 	mov	r6,zero
 20037a0:	00c01384 	movi	r3,78
 20037a4:	03810004 	movi	r14,1024
 20037a8:	033e1fc4 	movi	r12,-1921
 20037ac:	03ff5fc4 	movi	r15,-641
 20037b0:	99c00017 	ldw	r7,0(r19)
 20037b4:	39400003 	ldbu	r5,0(r7)
 20037b8:	28bff544 	addi	r2,r5,-43
 20037bc:	10803fcc 	andi	r2,r2,255
 20037c0:	1880c82e 	bgeu	r3,r2,2003ae4 <__svfscanf_r+0x948>
 20037c4:	a8000226 	beq	r21,zero,20037d0 <__svfscanf_r+0x634>
 20037c8:	00bfbfc4 	movi	r2,-257
 20037cc:	b0ac703a 	and	r22,r22,r2
 20037d0:	31bfffc4 	addi	r6,r6,-1
 20037d4:	00800044 	movi	r2,1
 20037d8:	1184092e 	bgeu	r2,r6,2004800 <__svfscanf_r+0x1664>
 20037dc:	80803fcc 	andi	r2,r16,255
 20037e0:	1080201c 	xori	r2,r2,128
 20037e4:	10bfe004 	addi	r2,r2,-128
 20037e8:	10ffffc4 	addi	r3,r2,-1
 20037ec:	01000184 	movi	r4,6
 20037f0:	20c01036 	bltu	r4,r3,2003834 <__svfscanf_r+0x698>
 20037f4:	00c00084 	movi	r3,2
 20037f8:	1883f50e 	bge	r3,r2,20047d0 <__svfscanf_r+0x1634>
 20037fc:	00c000c4 	movi	r3,3
 2003800:	10c00c26 	beq	r2,r3,2003834 <__svfscanf_r+0x698>
 2003804:	843fff04 	addi	r16,r16,-4
 2003808:	84003fcc 	andi	r16,r16,255
 200380c:	0438303a 	nor	fp,zero,r16
 2003810:	bf39883a 	add	fp,r23,fp
 2003814:	bdffffc4 	addi	r23,r23,-1
 2003818:	b9400007 	ldb	r5,0(r23)
 200381c:	8809883a 	mov	r4,r17
 2003820:	980d883a 	mov	r6,r19
 2003824:	200c4a00 	call	200c4a0 <_ungetc_r>
 2003828:	bf3ffa1e 	bne	r23,fp,2003814 <__alt_data_end+0xff003814>
 200382c:	a27fffc4 	addi	r9,r20,-1
 2003830:	4c29c83a 	sub	r20,r9,r16
 2003834:	b080400c 	andi	r2,r22,256
 2003838:	10001326 	beq	r2,zero,2003888 <__svfscanf_r+0x6ec>
 200383c:	b081000c 	andi	r2,r22,1024
 2003840:	1003d21e 	bne	r2,zero,200478c <__svfscanf_r+0x15f0>
 2003844:	b97fffc7 	ldb	r5,-1(r23)
 2003848:	00801944 	movi	r2,101
 200384c:	bc3fffc4 	addi	r16,r23,-1
 2003850:	a53fffc4 	addi	r20,r20,-1
 2003854:	28800826 	beq	r5,r2,2003878 <__svfscanf_r+0x6dc>
 2003858:	00801144 	movi	r2,69
 200385c:	28800626 	beq	r5,r2,2003878 <__svfscanf_r+0x6dc>
 2003860:	8809883a 	mov	r4,r17
 2003864:	980d883a 	mov	r6,r19
 2003868:	200c4a00 	call	200c4a0 <_ungetc_r>
 200386c:	b97fff87 	ldb	r5,-2(r23)
 2003870:	bc3fff84 	addi	r16,r23,-2
 2003874:	a53fffc4 	addi	r20,r20,-1
 2003878:	8809883a 	mov	r4,r17
 200387c:	980d883a 	mov	r6,r19
 2003880:	200c4a00 	call	200c4a0 <_ungetc_r>
 2003884:	802f883a 	mov	r23,r16
 2003888:	b080040c 	andi	r2,r22,16
 200388c:	103ef21e 	bne	r2,zero,2003458 <__alt_data_end+0xff003458>
 2003890:	b8000005 	stb	zero,0(r23)
 2003894:	b0c1800c 	andi	r3,r22,1536
 2003898:	00810004 	movi	r2,1024
 200389c:	18837726 	beq	r3,r2,200467c <__svfscanf_r+0x14e0>
 20038a0:	d8c0a317 	ldw	r3,652(sp)
 20038a4:	1803601e 	bne	r3,zero,2004628 <__svfscanf_r+0x148c>
 20038a8:	8809883a 	mov	r4,r17
 20038ac:	d9400104 	addi	r5,sp,4
 20038b0:	000d883a 	mov	r6,zero
 20038b4:	200a1180 	call	200a118 <_strtod_r>
 20038b8:	102b883a 	mov	r21,r2
 20038bc:	b080004c 	andi	r2,r22,1
 20038c0:	182f883a 	mov	r23,r3
 20038c4:	10031f26 	beq	r2,zero,2004544 <__svfscanf_r+0x13a8>
 20038c8:	d9409c17 	ldw	r5,624(sp)
 20038cc:	28800017 	ldw	r2,0(r5)
 20038d0:	29400104 	addi	r5,r5,4
 20038d4:	d9409c15 	stw	r5,624(sp)
 20038d8:	15400015 	stw	r21,0(r2)
 20038dc:	10c00115 	stw	r3,4(r2)
 20038e0:	d8809e17 	ldw	r2,632(sp)
 20038e4:	dc009d17 	ldw	r16,628(sp)
 20038e8:	10800044 	addi	r2,r2,1
 20038ec:	d8809e15 	stw	r2,632(sp)
 20038f0:	800d883a 	mov	r6,r16
 20038f4:	003e6206 	br	2003280 <__alt_data_end+0xff003280>
 20038f8:	e0bfffc4 	addi	r2,fp,-1
 20038fc:	01005704 	movi	r4,348
 2003900:	2080e82e 	bgeu	r4,r2,2003ca4 <__svfscanf_r+0xb08>
 2003904:	e0ffa8c4 	addi	r3,fp,-349
 2003908:	07005744 	movi	fp,349
 200390c:	da409f17 	ldw	r9,636(sp)
 2003910:	b5836014 	ori	r22,r22,3456
 2003914:	0021883a 	mov	r16,zero
 2003918:	dd400104 	addi	r21,sp,4
 200391c:	05c01344 	movi	r23,77
 2003920:	01c08004 	movi	r7,512
 2003924:	01bf7fc4 	movi	r6,-513
 2003928:	9a000017 	ldw	r8,0(r19)
 200392c:	41400003 	ldbu	r5,0(r8)
 2003930:	28bff544 	addi	r2,r5,-43
 2003934:	10803fcc 	andi	r2,r2,255
 2003938:	b881eb2e 	bgeu	r23,r2,20040e8 <__svfscanf_r+0xf4c>
 200393c:	da409f15 	stw	r9,636(sp)
 2003940:	b080400c 	andi	r2,r22,256
 2003944:	10000926 	beq	r2,zero,200396c <__svfscanf_r+0x7d0>
 2003948:	d9400104 	addi	r5,sp,4
 200394c:	2d40052e 	bgeu	r5,r21,2003964 <__svfscanf_r+0x7c8>
 2003950:	a97fffc7 	ldb	r5,-1(r21)
 2003954:	8809883a 	mov	r4,r17
 2003958:	980d883a 	mov	r6,r19
 200395c:	ad7fffc4 	addi	r21,r21,-1
 2003960:	200c4a00 	call	200c4a0 <_ungetc_r>
 2003964:	d8800104 	addi	r2,sp,4
 2003968:	157e4926 	beq	r2,r21,2003290 <__alt_data_end+0xff003290>
 200396c:	b080040c 	andi	r2,r22,16
 2003970:	1002ac26 	beq	r2,zero,2004424 <__svfscanf_r+0x1288>
 2003974:	d8c00104 	addi	r3,sp,4
 2003978:	a8ebc83a 	sub	r21,r21,r3
 200397c:	ac21883a 	add	r16,r21,r16
 2003980:	a429883a 	add	r20,r20,r16
 2003984:	dc009d17 	ldw	r16,628(sp)
 2003988:	800d883a 	mov	r6,r16
 200398c:	003e3c06 	br	2003280 <__alt_data_end+0xff003280>
 2003990:	e000011e 	bne	fp,zero,2003998 <__svfscanf_r+0x7fc>
 2003994:	073fffc4 	movi	fp,-1
 2003998:	b080004c 	andi	r2,r22,1
 200399c:	b580040c 	andi	r22,r22,16
 20039a0:	10003526 	beq	r2,zero,2003a78 <__svfscanf_r+0x8dc>
 20039a4:	b002dd1e 	bne	r22,zero,200451c <__svfscanf_r+0x1380>
 20039a8:	d8c09c17 	ldw	r3,624(sp)
 20039ac:	1d400017 	ldw	r21,0(r3)
 20039b0:	18c00104 	addi	r3,r3,4
 20039b4:	d8c09c15 	stw	r3,624(sp)
 20039b8:	0021883a 	mov	r16,zero
 20039bc:	ddc09904 	addi	r23,sp,612
 20039c0:	98c00017 	ldw	r3,0(r19)
 20039c4:	91400017 	ldw	r5,0(r18)
 20039c8:	18800003 	ldbu	r2,0(r3)
 20039cc:	11003fcc 	andi	r4,r2,255
 20039d0:	2909883a 	add	r4,r5,r4
 20039d4:	21000003 	ldbu	r4,0(r4)
 20039d8:	2100020c 	andi	r4,r4,8
 20039dc:	21003fcc 	andi	r4,r4,255
 20039e0:	2100201c 	xori	r4,r4,128
 20039e4:	213fe004 	addi	r4,r4,-128
 20039e8:	2002731e 	bne	r4,zero,20043b8 <__svfscanf_r+0x121c>
 20039ec:	e0027226 	beq	fp,zero,20043b8 <__svfscanf_r+0x121c>
 20039f0:	01408074 	movhi	r5,513
 20039f4:	2951ea04 	addi	r5,r5,18344
 20039f8:	29000017 	ldw	r4,0(r5)
 20039fc:	813f1d26 	beq	r16,r4,2003674 <__alt_data_end+0xff003674>
 2003a00:	9a000117 	ldw	r8,4(r19)
 2003a04:	18c00044 	addi	r3,r3,1
 2003a08:	d9000104 	addi	r4,sp,4
 2003a0c:	423fffc4 	addi	r8,r8,-1
 2003a10:	240f883a 	add	r7,r4,r16
 2003a14:	000b883a 	mov	r5,zero
 2003a18:	b809883a 	mov	r4,r23
 2003a1c:	01800204 	movi	r6,8
 2003a20:	9a000115 	stw	r8,4(r19)
 2003a24:	98c00015 	stw	r3,0(r19)
 2003a28:	38800005 	stb	r2,0(r7)
 2003a2c:	84000044 	addi	r16,r16,1
 2003a30:	20083ac0 	call	20083ac <memset>
 2003a34:	a80b883a 	mov	r5,r21
 2003a38:	8809883a 	mov	r4,r17
 2003a3c:	ddc00015 	stw	r23,0(sp)
 2003a40:	d9800104 	addi	r6,sp,4
 2003a44:	800f883a 	mov	r7,r16
 2003a48:	2007f000 	call	2007f00 <_mbrtowc_r>
 2003a4c:	017fffc4 	movi	r5,-1
 2003a50:	117f0826 	beq	r2,r5,2003674 <__alt_data_end+0xff003674>
 2003a54:	1002de1e 	bne	r2,zero,20045d0 <__svfscanf_r+0x1434>
 2003a58:	a8000015 	stw	zero,0(r21)
 2003a5c:	0009883a 	mov	r4,zero
 2003a60:	0002de06 	br	20045dc <__svfscanf_r+0x1440>
 2003a64:	8809883a 	mov	r4,r17
 2003a68:	980b883a 	mov	r5,r19
 2003a6c:	2009af00 	call	2009af0 <__srefill_r>
 2003a70:	103e3f26 	beq	r2,zero,2003370 <__alt_data_end+0xff003370>
 2003a74:	003eff06 	br	2003674 <__alt_data_end+0xff003674>
 2003a78:	b0027e26 	beq	r22,zero,2004474 <__svfscanf_r+0x12d8>
 2003a7c:	91400017 	ldw	r5,0(r18)
 2003a80:	98800017 	ldw	r2,0(r19)
 2003a84:	0021883a 	mov	r16,zero
 2003a88:	10c00003 	ldbu	r3,0(r2)
 2003a8c:	28c7883a 	add	r3,r5,r3
 2003a90:	18c00003 	ldbu	r3,0(r3)
 2003a94:	18c0020c 	andi	r3,r3,8
 2003a98:	18c03fcc 	andi	r3,r3,255
 2003a9c:	18c0201c 	xori	r3,r3,128
 2003aa0:	18ffe004 	addi	r3,r3,-128
 2003aa4:	183fb61e 	bne	r3,zero,2003980 <__alt_data_end+0xff003980>
 2003aa8:	98c00117 	ldw	r3,4(r19)
 2003aac:	10800044 	addi	r2,r2,1
 2003ab0:	84000044 	addi	r16,r16,1
 2003ab4:	18ffffc4 	addi	r3,r3,-1
 2003ab8:	98c00115 	stw	r3,4(r19)
 2003abc:	98800015 	stw	r2,0(r19)
 2003ac0:	e43faf26 	beq	fp,r16,2003980 <__alt_data_end+0xff003980>
 2003ac4:	00fff016 	blt	zero,r3,2003a88 <__alt_data_end+0xff003a88>
 2003ac8:	8809883a 	mov	r4,r17
 2003acc:	980b883a 	mov	r5,r19
 2003ad0:	2009af00 	call	2009af0 <__srefill_r>
 2003ad4:	103faa1e 	bne	r2,zero,2003980 <__alt_data_end+0xff003980>
 2003ad8:	91400017 	ldw	r5,0(r18)
 2003adc:	98800017 	ldw	r2,0(r19)
 2003ae0:	003fe906 	br	2003a88 <__alt_data_end+0xff003a88>
 2003ae4:	1085883a 	add	r2,r2,r2
 2003ae8:	1085883a 	add	r2,r2,r2
 2003aec:	01008034 	movhi	r4,512
 2003af0:	210ec004 	addi	r4,r4,15104
 2003af4:	1105883a 	add	r2,r2,r4
 2003af8:	10800017 	ldw	r2,0(r2)
 2003afc:	1000683a 	jmp	r2
 2003b00:	02003da0 	cmpeqi	r8,zero,246
 2003b04:	020037c4 	movi	r8,223
 2003b08:	02003da0 	cmpeqi	r8,zero,246
 2003b0c:	02003d8c 	andi	r8,zero,246
 2003b10:	020037c4 	movi	r8,223
 2003b14:	02003d68 	cmpgeui	r8,zero,245
 2003b18:	02003d1c 	xori	r8,zero,244
 2003b1c:	02003d1c 	xori	r8,zero,244
 2003b20:	02003d1c 	xori	r8,zero,244
 2003b24:	02003d1c 	xori	r8,zero,244
 2003b28:	02003d1c 	xori	r8,zero,244
 2003b2c:	02003d1c 	xori	r8,zero,244
 2003b30:	02003d1c 	xori	r8,zero,244
 2003b34:	02003d1c 	xori	r8,zero,244
 2003b38:	02003d1c 	xori	r8,zero,244
 2003b3c:	020037c4 	movi	r8,223
 2003b40:	020037c4 	movi	r8,223
 2003b44:	020037c4 	movi	r8,223
 2003b48:	020037c4 	movi	r8,223
 2003b4c:	020037c4 	movi	r8,223
 2003b50:	020037c4 	movi	r8,223
 2003b54:	020037c4 	movi	r8,223
 2003b58:	02003e84 	movi	r8,250
 2003b5c:	020037c4 	movi	r8,223
 2003b60:	020037c4 	movi	r8,223
 2003b64:	020037c4 	movi	r8,223
 2003b68:	02003e48 	cmpgei	r8,zero,249
 2003b6c:	02003e94 	movui	r8,250
 2003b70:	020037c4 	movi	r8,223
 2003b74:	020037c4 	movi	r8,223
 2003b78:	02003e20 	cmpeqi	r8,zero,248
 2003b7c:	020037c4 	movi	r8,223
 2003b80:	020037c4 	movi	r8,223
 2003b84:	020037c4 	movi	r8,223
 2003b88:	020037c4 	movi	r8,223
 2003b8c:	02003dec 	andhi	r8,zero,247
 2003b90:	020037c4 	movi	r8,223
 2003b94:	020037c4 	movi	r8,223
 2003b98:	020037c4 	movi	r8,223
 2003b9c:	020037c4 	movi	r8,223
 2003ba0:	020037c4 	movi	r8,223
 2003ba4:	02003dd0 	cmplti	r8,zero,247
 2003ba8:	020037c4 	movi	r8,223
 2003bac:	020037c4 	movi	r8,223
 2003bb0:	020037c4 	movi	r8,223
 2003bb4:	020037c4 	movi	r8,223
 2003bb8:	02003db4 	movhi	r8,246
 2003bbc:	020037c4 	movi	r8,223
 2003bc0:	020037c4 	movi	r8,223
 2003bc4:	020037c4 	movi	r8,223
 2003bc8:	020037c4 	movi	r8,223
 2003bcc:	020037c4 	movi	r8,223
 2003bd0:	020037c4 	movi	r8,223
 2003bd4:	020037c4 	movi	r8,223
 2003bd8:	02003e84 	movi	r8,250
 2003bdc:	020037c4 	movi	r8,223
 2003be0:	020037c4 	movi	r8,223
 2003be4:	020037c4 	movi	r8,223
 2003be8:	02003e48 	cmpgei	r8,zero,249
 2003bec:	02003e94 	movui	r8,250
 2003bf0:	020037c4 	movi	r8,223
 2003bf4:	020037c4 	movi	r8,223
 2003bf8:	02003e20 	cmpeqi	r8,zero,248
 2003bfc:	020037c4 	movi	r8,223
 2003c00:	020037c4 	movi	r8,223
 2003c04:	020037c4 	movi	r8,223
 2003c08:	020037c4 	movi	r8,223
 2003c0c:	02003dec 	andhi	r8,zero,247
 2003c10:	020037c4 	movi	r8,223
 2003c14:	020037c4 	movi	r8,223
 2003c18:	020037c4 	movi	r8,223
 2003c1c:	020037c4 	movi	r8,223
 2003c20:	020037c4 	movi	r8,223
 2003c24:	02003dd0 	cmplti	r8,zero,247
 2003c28:	020037c4 	movi	r8,223
 2003c2c:	020037c4 	movi	r8,223
 2003c30:	020037c4 	movi	r8,223
 2003c34:	020037c4 	movi	r8,223
 2003c38:	02003db4 	movhi	r8,246
 2003c3c:	b580040c 	andi	r22,r22,16
 2003c40:	b0025226 	beq	r22,zero,200458c <__svfscanf_r+0x13f0>
 2003c44:	0021883a 	mov	r16,zero
 2003c48:	98800117 	ldw	r2,4(r19)
 2003c4c:	17026f0e 	bge	r2,fp,200460c <__svfscanf_r+0x1470>
 2003c50:	98c00017 	ldw	r3,0(r19)
 2003c54:	8809883a 	mov	r4,r17
 2003c58:	980b883a 	mov	r5,r19
 2003c5c:	1887883a 	add	r3,r3,r2
 2003c60:	98c00015 	stw	r3,0(r19)
 2003c64:	80a1883a 	add	r16,r16,r2
 2003c68:	e0b9c83a 	sub	fp,fp,r2
 2003c6c:	2009af00 	call	2009af0 <__srefill_r>
 2003c70:	103ff526 	beq	r2,zero,2003c48 <__alt_data_end+0xff003c48>
 2003c74:	803f421e 	bne	r16,zero,2003980 <__alt_data_end+0xff003980>
 2003c78:	003e7e06 	br	2003674 <__alt_data_end+0xff003674>
 2003c7c:	8809883a 	mov	r4,r17
 2003c80:	980b883a 	mov	r5,r19
 2003c84:	2009af00 	call	2009af0 <__srefill_r>
 2003c88:	103df126 	beq	r2,zero,2003450 <__alt_data_end+0xff003450>
 2003c8c:	803e791e 	bne	r16,zero,2003674 <__alt_data_end+0xff003674>
 2003c90:	b83f1326 	beq	r23,zero,20038e0 <__alt_data_end+0xff0038e0>
 2003c94:	003df006 	br	2003458 <__alt_data_end+0xff003458>
 2003c98:	e2ffa8c4 	addi	r11,fp,-349
 2003c9c:	07005744 	movi	fp,349
 2003ca0:	003eb706 	br	2003780 <__alt_data_end+0xff003780>
 2003ca4:	0007883a 	mov	r3,zero
 2003ca8:	003f1806 	br	200390c <__alt_data_end+0xff00390c>
 2003cac:	d8c09c17 	ldw	r3,624(sp)
 2003cb0:	98800017 	ldw	r2,0(r19)
 2003cb4:	dd805884 	addi	r22,sp,354
 2003cb8:	1c000017 	ldw	r16,0(r3)
 2003cbc:	1dc00104 	addi	r23,r3,4
 2003cc0:	802b883a 	mov	r21,r16
 2003cc4:	10c00003 	ldbu	r3,0(r2)
 2003cc8:	b0c7883a 	add	r3,r22,r3
 2003ccc:	18c00007 	ldb	r3,0(r3)
 2003cd0:	1801c226 	beq	r3,zero,20043dc <__svfscanf_r+0x1240>
 2003cd4:	98c00117 	ldw	r3,4(r19)
 2003cd8:	10800044 	addi	r2,r2,1
 2003cdc:	ad400044 	addi	r21,r21,1
 2003ce0:	18ffffc4 	addi	r3,r3,-1
 2003ce4:	98c00115 	stw	r3,4(r19)
 2003ce8:	10ffffc3 	ldbu	r3,-1(r2)
 2003cec:	e73fffc4 	addi	fp,fp,-1
 2003cf0:	a8ffffc5 	stb	r3,-1(r21)
 2003cf4:	98800015 	stw	r2,0(r19)
 2003cf8:	e001b826 	beq	fp,zero,20043dc <__svfscanf_r+0x1240>
 2003cfc:	98c00117 	ldw	r3,4(r19)
 2003d00:	00fff016 	blt	zero,r3,2003cc4 <__alt_data_end+0xff003cc4>
 2003d04:	8809883a 	mov	r4,r17
 2003d08:	980b883a 	mov	r5,r19
 2003d0c:	2009af00 	call	2009af0 <__srefill_r>
 2003d10:	1001b11e 	bne	r2,zero,20043d8 <__svfscanf_r+0x123c>
 2003d14:	98800017 	ldw	r2,0(r19)
 2003d18:	003fea06 	br	2003cc4 <__alt_data_end+0xff003cc4>
 2003d1c:	80803fcc 	andi	r2,r16,255
 2003d20:	1080201c 	xori	r2,r2,128
 2003d24:	10bfe004 	addi	r2,r2,-128
 2003d28:	3085883a 	add	r2,r6,r2
 2003d2c:	103ea51e 	bne	r2,zero,20037c4 <__alt_data_end+0xff0037c4>
 2003d30:	00bf9fc4 	movi	r2,-385
 2003d34:	b0ac703a 	and	r22,r22,r2
 2003d38:	b9400005 	stb	r5,0(r23)
 2003d3c:	bdc00044 	addi	r23,r23,1
 2003d40:	98800117 	ldw	r2,4(r19)
 2003d44:	e73fffc4 	addi	fp,fp,-1
 2003d48:	a5000044 	addi	r20,r20,1
 2003d4c:	10bfffc4 	addi	r2,r2,-1
 2003d50:	98800115 	stw	r2,4(r19)
 2003d54:	00816d0e 	bge	zero,r2,200430c <__svfscanf_r+0x1170>
 2003d58:	39c00044 	addi	r7,r7,1
 2003d5c:	99c00015 	stw	r7,0(r19)
 2003d60:	e03e931e 	bne	fp,zero,20037b0 <__alt_data_end+0xff0037b0>
 2003d64:	003e9706 	br	20037c4 <__alt_data_end+0xff0037c4>
 2003d68:	b080400c 	andi	r2,r22,256
 2003d6c:	103feb26 	beq	r2,zero,2003d1c <__alt_data_end+0xff003d1c>
 2003d70:	00bfdfc4 	movi	r2,-129
 2003d74:	b0ac703a 	and	r22,r22,r2
 2003d78:	ad400044 	addi	r21,r21,1
 2003d7c:	583ff026 	beq	r11,zero,2003d40 <__alt_data_end+0xff003d40>
 2003d80:	5affffc4 	addi	r11,r11,-1
 2003d84:	e7000044 	addi	fp,fp,1
 2003d88:	003fed06 	br	2003d40 <__alt_data_end+0xff003d40>
 2003d8c:	b080800c 	andi	r2,r22,512
 2003d90:	103e8c26 	beq	r2,zero,20037c4 <__alt_data_end+0xff0037c4>
 2003d94:	b3ec703a 	and	r22,r22,r15
 2003d98:	dd40a215 	stw	r21,648(sp)
 2003d9c:	003fe606 	br	2003d38 <__alt_data_end+0xff003d38>
 2003da0:	b080200c 	andi	r2,r22,128
 2003da4:	103e8726 	beq	r2,zero,20037c4 <__alt_data_end+0xff0037c4>
 2003da8:	00bfdfc4 	movi	r2,-129
 2003dac:	b0ac703a 	and	r22,r22,r2
 2003db0:	003fe106 	br	2003d38 <__alt_data_end+0xff003d38>
 2003db4:	81003fcc 	andi	r4,r16,255
 2003db8:	2100201c 	xori	r4,r4,128
 2003dbc:	213fe004 	addi	r4,r4,-128
 2003dc0:	008001c4 	movi	r2,7
 2003dc4:	20be7f1e 	bne	r4,r2,20037c4 <__alt_data_end+0xff0037c4>
 2003dc8:	04000204 	movi	r16,8
 2003dcc:	003fda06 	br	2003d38 <__alt_data_end+0xff003d38>
 2003dd0:	81003fcc 	andi	r4,r16,255
 2003dd4:	2100201c 	xori	r4,r4,128
 2003dd8:	213fe004 	addi	r4,r4,-128
 2003ddc:	00800184 	movi	r2,6
 2003de0:	20be781e 	bne	r4,r2,20037c4 <__alt_data_end+0xff0037c4>
 2003de4:	040001c4 	movi	r16,7
 2003de8:	003fd306 	br	2003d38 <__alt_data_end+0xff003d38>
 2003dec:	3001891e 	bne	r6,zero,2004414 <__svfscanf_r+0x1278>
 2003df0:	b101c00c 	andi	r4,r22,1792
 2003df4:	0081c004 	movi	r2,1792
 2003df8:	20821d26 	beq	r4,r2,2004670 <__svfscanf_r+0x14d4>
 2003dfc:	80803fcc 	andi	r2,r16,255
 2003e00:	1080201c 	xori	r2,r2,128
 2003e04:	10bfe004 	addi	r2,r2,-128
 2003e08:	01000044 	movi	r4,1
 2003e0c:	11000226 	beq	r2,r4,2003e18 <__svfscanf_r+0xc7c>
 2003e10:	01000104 	movi	r4,4
 2003e14:	113e6b1e 	bne	r2,r4,20037c4 <__alt_data_end+0xff0037c4>
 2003e18:	84000044 	addi	r16,r16,1
 2003e1c:	003fc606 	br	2003d38 <__alt_data_end+0xff003d38>
 2003e20:	80803fcc 	andi	r2,r16,255
 2003e24:	1080201c 	xori	r2,r2,128
 2003e28:	10bfe004 	addi	r2,r2,-128
 2003e2c:	1001731e 	bne	r2,zero,20043fc <__svfscanf_r+0x1260>
 2003e30:	b101c00c 	andi	r4,r22,1792
 2003e34:	0081c004 	movi	r2,1792
 2003e38:	20be621e 	bne	r4,r2,20037c4 <__alt_data_end+0xff0037c4>
 2003e3c:	b32c703a 	and	r22,r22,r12
 2003e40:	04000044 	movi	r16,1
 2003e44:	003fbc06 	br	2003d38 <__alt_data_end+0xff003d38>
 2003e48:	b081400c 	andi	r2,r22,1280
 2003e4c:	13800326 	beq	r2,r14,2003e5c <__svfscanf_r+0xcc0>
 2003e50:	b081000c 	andi	r2,r22,1024
 2003e54:	103e5b26 	beq	r2,zero,20037c4 <__alt_data_end+0xff0037c4>
 2003e58:	a83e5d26 	beq	r21,zero,20037d0 <__alt_data_end+0xff0037d0>
 2003e5c:	b080800c 	andi	r2,r22,512
 2003e60:	1000041e 	bne	r2,zero,2003e74 <__svfscanf_r+0xcd8>
 2003e64:	d880a217 	ldw	r2,648(sp)
 2003e68:	ddc0a115 	stw	r23,644(sp)
 2003e6c:	a8abc83a 	sub	r21,r21,r2
 2003e70:	dd40a315 	stw	r21,652(sp)
 2003e74:	b32c703a 	and	r22,r22,r12
 2003e78:	b5806014 	ori	r22,r22,384
 2003e7c:	002b883a 	mov	r21,zero
 2003e80:	003fad06 	br	2003d38 <__alt_data_end+0xff003d38>
 2003e84:	00800044 	movi	r2,1
 2003e88:	30be4e1e 	bne	r6,r2,20037c4 <__alt_data_end+0xff0037c4>
 2003e8c:	01800084 	movi	r6,2
 2003e90:	003fa906 	br	2003d38 <__alt_data_end+0xff003d38>
 2003e94:	81003fcc 	andi	r4,r16,255
 2003e98:	2100201c 	xori	r4,r4,128
 2003e9c:	213fe004 	addi	r4,r4,-128
 2003ea0:	00800084 	movi	r2,2
 2003ea4:	20be471e 	bne	r4,r2,20037c4 <__alt_data_end+0xff0037c4>
 2003ea8:	040000c4 	movi	r16,3
 2003eac:	003fa206 	br	2003d38 <__alt_data_end+0xff003d38>
 2003eb0:	01408074 	movhi	r5,513
 2003eb4:	296de704 	addi	r5,r5,-18532
 2003eb8:	00800284 	movi	r2,10
 2003ebc:	d940a015 	stw	r5,640(sp)
 2003ec0:	d8809f15 	stw	r2,636(sp)
 2003ec4:	040000c4 	movi	r16,3
 2003ec8:	003d2706 	br	2003368 <__alt_data_end+0xff003368>
 2003ecc:	df009d15 	stw	fp,628(sp)
 2003ed0:	04000084 	movi	r16,2
 2003ed4:	2039883a 	mov	fp,r4
 2003ed8:	003d2306 	br	2003368 <__alt_data_end+0xff003368>
 2003edc:	00808074 	movhi	r2,513
 2003ee0:	10af5504 	addi	r2,r2,-17068
 2003ee4:	00c00284 	movi	r3,10
 2003ee8:	df009d15 	stw	fp,628(sp)
 2003eec:	d880a015 	stw	r2,640(sp)
 2003ef0:	2039883a 	mov	fp,r4
 2003ef4:	d8c09f15 	stw	r3,636(sp)
 2003ef8:	040000c4 	movi	r16,3
 2003efc:	003d1a06 	br	2003368 <__alt_data_end+0xff003368>
 2003f00:	bdc03fcc 	andi	r23,r23,255
 2003f04:	01400284 	movi	r5,10
 2003f08:	bdc0201c 	xori	r23,r23,128
 2003f0c:	d8c0a815 	stw	r3,672(sp)
 2003f10:	d980a915 	stw	r6,676(sp)
 2003f14:	bdffe004 	addi	r23,r23,-128
 2003f18:	20010a80 	call	20010a8 <__mulsi3>
 2003f1c:	15c5883a 	add	r2,r2,r23
 2003f20:	113ff404 	addi	r4,r2,-48
 2003f24:	85c00043 	ldbu	r23,1(r16)
 2003f28:	d8c0a817 	ldw	r3,672(sp)
 2003f2c:	e021883a 	mov	r16,fp
 2003f30:	d980a917 	ldw	r6,676(sp)
 2003f34:	003cf906 	br	200331c <__alt_data_end+0xff00331c>
 2003f38:	df009d15 	stw	fp,628(sp)
 2003f3c:	2039883a 	mov	fp,r4
 2003f40:	003d0206 	br	200334c <__alt_data_end+0xff00334c>
 2003f44:	df009d15 	stw	fp,628(sp)
 2003f48:	04000104 	movi	r16,4
 2003f4c:	2039883a 	mov	fp,r4
 2003f50:	003d0506 	br	2003368 <__alt_data_end+0xff003368>
 2003f54:	85c00043 	ldbu	r23,1(r16)
 2003f58:	b5800094 	ori	r22,r22,2
 2003f5c:	e021883a 	mov	r16,fp
 2003f60:	003cee06 	br	200331c <__alt_data_end+0xff00331c>
 2003f64:	df009d15 	stw	fp,628(sp)
 2003f68:	e021883a 	mov	r16,fp
 2003f6c:	003cd706 	br	20032cc <__alt_data_end+0xff0032cc>
 2003f70:	85c00043 	ldbu	r23,1(r16)
 2003f74:	b5800414 	ori	r22,r22,16
 2003f78:	e021883a 	mov	r16,fp
 2003f7c:	003ce706 	br	200331c <__alt_data_end+0xff00331c>
 2003f80:	df009d15 	stw	fp,628(sp)
 2003f84:	b5800054 	ori	r22,r22,1
 2003f88:	2039883a 	mov	fp,r4
 2003f8c:	01008074 	movhi	r4,513
 2003f90:	212f5504 	addi	r4,r4,-17068
 2003f94:	01400204 	movi	r5,8
 2003f98:	d900a015 	stw	r4,640(sp)
 2003f9c:	d9409f15 	stw	r5,636(sp)
 2003fa0:	040000c4 	movi	r16,3
 2003fa4:	003cf006 	br	2003368 <__alt_data_end+0xff003368>
 2003fa8:	df009d15 	stw	fp,628(sp)
 2003fac:	01400404 	movi	r5,16
 2003fb0:	2039883a 	mov	fp,r4
 2003fb4:	01008074 	movhi	r4,513
 2003fb8:	212f5504 	addi	r4,r4,-17068
 2003fbc:	b5808014 	ori	r22,r22,512
 2003fc0:	d900a015 	stw	r4,640(sp)
 2003fc4:	d9409f15 	stw	r5,636(sp)
 2003fc8:	040000c4 	movi	r16,3
 2003fcc:	003ce606 	br	2003368 <__alt_data_end+0xff003368>
 2003fd0:	df009d15 	stw	fp,628(sp)
 2003fd4:	d9409d17 	ldw	r5,628(sp)
 2003fd8:	2039883a 	mov	fp,r4
 2003fdc:	d9005884 	addi	r4,sp,354
 2003fe0:	2009da40 	call	2009da4 <__sccl>
 2003fe4:	d8809d15 	stw	r2,628(sp)
 2003fe8:	b5801014 	ori	r22,r22,64
 2003fec:	04000044 	movi	r16,1
 2003ff0:	003cdd06 	br	2003368 <__alt_data_end+0xff003368>
 2003ff4:	df009d15 	stw	fp,628(sp)
 2003ff8:	b5801014 	ori	r22,r22,64
 2003ffc:	2039883a 	mov	fp,r4
 2004000:	0021883a 	mov	r16,zero
 2004004:	003cd806 	br	2003368 <__alt_data_end+0xff003368>
 2004008:	df009d15 	stw	fp,628(sp)
 200400c:	2039883a 	mov	fp,r4
 2004010:	003ccf06 	br	2003350 <__alt_data_end+0xff003350>
 2004014:	85c00043 	ldbu	r23,1(r16)
 2004018:	b5800114 	ori	r22,r22,4
 200401c:	e021883a 	mov	r16,fp
 2004020:	003cbe06 	br	200331c <__alt_data_end+0xff00331c>
 2004024:	df009d15 	stw	fp,628(sp)
 2004028:	2039883a 	mov	fp,r4
 200402c:	01008074 	movhi	r4,513
 2004030:	212de704 	addi	r4,r4,-18532
 2004034:	d900a015 	stw	r4,640(sp)
 2004038:	d8009f15 	stw	zero,636(sp)
 200403c:	040000c4 	movi	r16,3
 2004040:	003cc906 	br	2003368 <__alt_data_end+0xff003368>
 2004044:	85c00043 	ldbu	r23,1(r16)
 2004048:	b8803fcc 	andi	r2,r23,255
 200404c:	1080201c 	xori	r2,r2,128
 2004050:	10bfe004 	addi	r2,r2,-128
 2004054:	11818f26 	beq	r2,r6,2004694 <__svfscanf_r+0x14f8>
 2004058:	b5800054 	ori	r22,r22,1
 200405c:	e021883a 	mov	r16,fp
 2004060:	003cae06 	br	200331c <__alt_data_end+0xff00331c>
 2004064:	df009d15 	stw	fp,628(sp)
 2004068:	b080040c 	andi	r2,r22,16
 200406c:	103cfa1e 	bne	r2,zero,2003458 <__alt_data_end+0xff003458>
 2004070:	b080010c 	andi	r2,r22,4
 2004074:	10018b26 	beq	r2,zero,20046a4 <__svfscanf_r+0x1508>
 2004078:	d9009c17 	ldw	r4,624(sp)
 200407c:	e021883a 	mov	r16,fp
 2004080:	800d883a 	mov	r6,r16
 2004084:	20800017 	ldw	r2,0(r4)
 2004088:	21000104 	addi	r4,r4,4
 200408c:	d9009c15 	stw	r4,624(sp)
 2004090:	1500000d 	sth	r20,0(r2)
 2004094:	003c7a06 	br	2003280 <__alt_data_end+0xff003280>
 2004098:	df009d15 	stw	fp,628(sp)
 200409c:	2039883a 	mov	fp,r4
 20040a0:	003fba06 	br	2003f8c <__alt_data_end+0xff003f8c>
 20040a4:	00808074 	movhi	r2,513
 20040a8:	10af5504 	addi	r2,r2,-17068
 20040ac:	00c00404 	movi	r3,16
 20040b0:	df009d15 	stw	fp,628(sp)
 20040b4:	b5808814 	ori	r22,r22,544
 20040b8:	2039883a 	mov	fp,r4
 20040bc:	d880a015 	stw	r2,640(sp)
 20040c0:	d8c09f15 	stw	r3,636(sp)
 20040c4:	040000c4 	movi	r16,3
 20040c8:	003ca706 	br	2003368 <__alt_data_end+0xff003368>
 20040cc:	013fff84 	movi	r4,-2
 20040d0:	113cdd26 	beq	r2,r4,2003448 <__alt_data_end+0xff003448>
 20040d4:	a429883a 	add	r20,r20,r16
 20040d8:	e73fffc4 	addi	fp,fp,-1
 20040dc:	b83cd826 	beq	r23,zero,2003440 <__alt_data_end+0xff003440>
 20040e0:	0021883a 	mov	r16,zero
 20040e4:	003cd806 	br	2003448 <__alt_data_end+0xff003448>
 20040e8:	1085883a 	add	r2,r2,r2
 20040ec:	1085883a 	add	r2,r2,r2
 20040f0:	01008034 	movhi	r4,512
 20040f4:	21104104 	addi	r4,r4,16644
 20040f8:	1105883a 	add	r2,r2,r4
 20040fc:	10800017 	ldw	r2,0(r2)
 2004100:	1000683a 	jmp	r2
 2004104:	020042f8 	rdprs	r8,zero,267
 2004108:	0200393c 	xorhi	r8,zero,228
 200410c:	020042f8 	rdprs	r8,zero,267
 2004110:	0200393c 	xorhi	r8,zero,228
 2004114:	0200393c 	xorhi	r8,zero,228
 2004118:	020042d0 	cmplti	r8,zero,267
 200411c:	020042b0 	cmpltui	r8,zero,266
 2004120:	020042b0 	cmpltui	r8,zero,266
 2004124:	020042b0 	cmpltui	r8,zero,266
 2004128:	020042b0 	cmpltui	r8,zero,266
 200412c:	020042b0 	cmpltui	r8,zero,266
 2004130:	020042b0 	cmpltui	r8,zero,266
 2004134:	020042b0 	cmpltui	r8,zero,266
 2004138:	02004290 	cmplti	r8,zero,266
 200413c:	02004290 	cmplti	r8,zero,266
 2004140:	0200393c 	xorhi	r8,zero,228
 2004144:	0200393c 	xorhi	r8,zero,228
 2004148:	0200393c 	xorhi	r8,zero,228
 200414c:	0200393c 	xorhi	r8,zero,228
 2004150:	0200393c 	xorhi	r8,zero,228
 2004154:	0200393c 	xorhi	r8,zero,228
 2004158:	0200393c 	xorhi	r8,zero,228
 200415c:	0200427c 	xorhi	r8,zero,265
 2004160:	0200427c 	xorhi	r8,zero,265
 2004164:	0200427c 	xorhi	r8,zero,265
 2004168:	0200427c 	xorhi	r8,zero,265
 200416c:	0200427c 	xorhi	r8,zero,265
 2004170:	0200427c 	xorhi	r8,zero,265
 2004174:	0200393c 	xorhi	r8,zero,228
 2004178:	0200393c 	xorhi	r8,zero,228
 200417c:	0200393c 	xorhi	r8,zero,228
 2004180:	0200393c 	xorhi	r8,zero,228
 2004184:	0200393c 	xorhi	r8,zero,228
 2004188:	0200393c 	xorhi	r8,zero,228
 200418c:	0200393c 	xorhi	r8,zero,228
 2004190:	0200393c 	xorhi	r8,zero,228
 2004194:	0200393c 	xorhi	r8,zero,228
 2004198:	0200393c 	xorhi	r8,zero,228
 200419c:	0200393c 	xorhi	r8,zero,228
 20041a0:	0200393c 	xorhi	r8,zero,228
 20041a4:	0200393c 	xorhi	r8,zero,228
 20041a8:	0200393c 	xorhi	r8,zero,228
 20041ac:	0200393c 	xorhi	r8,zero,228
 20041b0:	0200393c 	xorhi	r8,zero,228
 20041b4:	0200393c 	xorhi	r8,zero,228
 20041b8:	0200423c 	xorhi	r8,zero,264
 20041bc:	0200393c 	xorhi	r8,zero,228
 20041c0:	0200393c 	xorhi	r8,zero,228
 20041c4:	0200393c 	xorhi	r8,zero,228
 20041c8:	0200393c 	xorhi	r8,zero,228
 20041cc:	0200393c 	xorhi	r8,zero,228
 20041d0:	0200393c 	xorhi	r8,zero,228
 20041d4:	0200393c 	xorhi	r8,zero,228
 20041d8:	0200393c 	xorhi	r8,zero,228
 20041dc:	0200427c 	xorhi	r8,zero,265
 20041e0:	0200427c 	xorhi	r8,zero,265
 20041e4:	0200427c 	xorhi	r8,zero,265
 20041e8:	0200427c 	xorhi	r8,zero,265
 20041ec:	0200427c 	xorhi	r8,zero,265
 20041f0:	0200427c 	xorhi	r8,zero,265
 20041f4:	0200393c 	xorhi	r8,zero,228
 20041f8:	0200393c 	xorhi	r8,zero,228
 20041fc:	0200393c 	xorhi	r8,zero,228
 2004200:	0200393c 	xorhi	r8,zero,228
 2004204:	0200393c 	xorhi	r8,zero,228
 2004208:	0200393c 	xorhi	r8,zero,228
 200420c:	0200393c 	xorhi	r8,zero,228
 2004210:	0200393c 	xorhi	r8,zero,228
 2004214:	0200393c 	xorhi	r8,zero,228
 2004218:	0200393c 	xorhi	r8,zero,228
 200421c:	0200393c 	xorhi	r8,zero,228
 2004220:	0200393c 	xorhi	r8,zero,228
 2004224:	0200393c 	xorhi	r8,zero,228
 2004228:	0200393c 	xorhi	r8,zero,228
 200422c:	0200393c 	xorhi	r8,zero,228
 2004230:	0200393c 	xorhi	r8,zero,228
 2004234:	0200393c 	xorhi	r8,zero,228
 2004238:	0200423c 	xorhi	r8,zero,264
 200423c:	b081800c 	andi	r2,r22,1536
 2004240:	11fdbe1e 	bne	r2,r7,200393c <__alt_data_end+0xff00393c>
 2004244:	b1ac703a 	and	r22,r22,r6
 2004248:	b5814014 	ori	r22,r22,1280
 200424c:	02400404 	movi	r9,16
 2004250:	a9400005 	stb	r5,0(r21)
 2004254:	ad400044 	addi	r21,r21,1
 2004258:	98800117 	ldw	r2,4(r19)
 200425c:	10bfffc4 	addi	r2,r2,-1
 2004260:	98800115 	stw	r2,4(r19)
 2004264:	00803b0e 	bge	zero,r2,2004354 <__svfscanf_r+0x11b8>
 2004268:	42000044 	addi	r8,r8,1
 200426c:	9a000015 	stw	r8,0(r19)
 2004270:	e73fffc4 	addi	fp,fp,-1
 2004274:	e03dac1e 	bne	fp,zero,2003928 <__alt_data_end+0xff003928>
 2004278:	003db006 	br	200393c <__alt_data_end+0xff00393c>
 200427c:	00800284 	movi	r2,10
 2004280:	127dae0e 	bge	r2,r9,200393c <__alt_data_end+0xff00393c>
 2004284:	00bd1fc4 	movi	r2,-2945
 2004288:	b0ac703a 	and	r22,r22,r2
 200428c:	003ff006 	br	2004250 <__alt_data_end+0xff004250>
 2004290:	4a53883a 	add	r9,r9,r9
 2004294:	01008074 	movhi	r4,513
 2004298:	2109e784 	addi	r4,r4,10142
 200429c:	2245883a 	add	r2,r4,r9
 20042a0:	1240000f 	ldh	r9,0(r2)
 20042a4:	00800204 	movi	r2,8
 20042a8:	127ff616 	blt	r2,r9,2004284 <__alt_data_end+0xff004284>
 20042ac:	003da306 	br	200393c <__alt_data_end+0xff00393c>
 20042b0:	4a53883a 	add	r9,r9,r9
 20042b4:	01008074 	movhi	r4,513
 20042b8:	2109e784 	addi	r4,r4,10142
 20042bc:	2245883a 	add	r2,r4,r9
 20042c0:	1240000f 	ldh	r9,0(r2)
 20042c4:	00bd1fc4 	movi	r2,-2945
 20042c8:	b0ac703a 	and	r22,r22,r2
 20042cc:	003fe006 	br	2004250 <__alt_data_end+0xff004250>
 20042d0:	b082000c 	andi	r2,r22,2048
 20042d4:	103fde26 	beq	r2,zero,2004250 <__alt_data_end+0xff004250>
 20042d8:	4800021e 	bne	r9,zero,20042e4 <__svfscanf_r+0x1148>
 20042dc:	b5808014 	ori	r22,r22,512
 20042e0:	02400204 	movi	r9,8
 20042e4:	b081000c 	andi	r2,r22,1024
 20042e8:	10009f26 	beq	r2,zero,2004568 <__svfscanf_r+0x13cc>
 20042ec:	00be9fc4 	movi	r2,-1409
 20042f0:	b0ac703a 	and	r22,r22,r2
 20042f4:	003fd606 	br	2004250 <__alt_data_end+0xff004250>
 20042f8:	b080200c 	andi	r2,r22,128
 20042fc:	103d8f26 	beq	r2,zero,200393c <__alt_data_end+0xff00393c>
 2004300:	00bfdfc4 	movi	r2,-129
 2004304:	b0ac703a 	and	r22,r22,r2
 2004308:	003fd106 	br	2004250 <__alt_data_end+0xff004250>
 200430c:	8809883a 	mov	r4,r17
 2004310:	980b883a 	mov	r5,r19
 2004314:	d8c0a815 	stw	r3,672(sp)
 2004318:	d980a915 	stw	r6,676(sp)
 200431c:	dac0a715 	stw	r11,668(sp)
 2004320:	db00a515 	stw	r12,660(sp)
 2004324:	db80a415 	stw	r14,656(sp)
 2004328:	dbc0a615 	stw	r15,664(sp)
 200432c:	2009af00 	call	2009af0 <__srefill_r>
 2004330:	d8c0a817 	ldw	r3,672(sp)
 2004334:	d980a917 	ldw	r6,676(sp)
 2004338:	dac0a717 	ldw	r11,668(sp)
 200433c:	db00a517 	ldw	r12,660(sp)
 2004340:	db80a417 	ldw	r14,656(sp)
 2004344:	dbc0a617 	ldw	r15,664(sp)
 2004348:	103d1e1e 	bne	r2,zero,20037c4 <__alt_data_end+0xff0037c4>
 200434c:	e03d181e 	bne	fp,zero,20037b0 <__alt_data_end+0xff0037b0>
 2004350:	003d1c06 	br	20037c4 <__alt_data_end+0xff0037c4>
 2004354:	8809883a 	mov	r4,r17
 2004358:	980b883a 	mov	r5,r19
 200435c:	d8c0a815 	stw	r3,672(sp)
 2004360:	d980a915 	stw	r6,676(sp)
 2004364:	d9c0a415 	stw	r7,656(sp)
 2004368:	da40a515 	stw	r9,660(sp)
 200436c:	2009af00 	call	2009af0 <__srefill_r>
 2004370:	d8c0a817 	ldw	r3,672(sp)
 2004374:	d980a917 	ldw	r6,676(sp)
 2004378:	d9c0a417 	ldw	r7,656(sp)
 200437c:	da40a517 	ldw	r9,660(sp)
 2004380:	103fbb26 	beq	r2,zero,2004270 <__alt_data_end+0xff004270>
 2004384:	003d6d06 	br	200393c <__alt_data_end+0xff00393c>
 2004388:	a429883a 	add	r20,r20,r16
 200438c:	e73fffc4 	addi	fp,fp,-1
 2004390:	b000fc1e 	bne	r22,zero,2004784 <__svfscanf_r+0x15e8>
 2004394:	ad400104 	addi	r21,r21,4
 2004398:	0021883a 	mov	r16,zero
 200439c:	98800117 	ldw	r2,4(r19)
 20043a0:	00bd8716 	blt	zero,r2,20039c0 <__alt_data_end+0xff0039c0>
 20043a4:	8809883a 	mov	r4,r17
 20043a8:	980b883a 	mov	r5,r19
 20043ac:	2009af00 	call	2009af0 <__srefill_r>
 20043b0:	103d8326 	beq	r2,zero,20039c0 <__alt_data_end+0xff0039c0>
 20043b4:	803caf1e 	bne	r16,zero,2003674 <__alt_data_end+0xff003674>
 20043b8:	b03c271e 	bne	r22,zero,2003458 <__alt_data_end+0xff003458>
 20043bc:	d8809e17 	ldw	r2,632(sp)
 20043c0:	dc009d17 	ldw	r16,628(sp)
 20043c4:	a8000015 	stw	zero,0(r21)
 20043c8:	10800044 	addi	r2,r2,1
 20043cc:	d8809e15 	stw	r2,632(sp)
 20043d0:	800d883a 	mov	r6,r16
 20043d4:	003baa06 	br	2003280 <__alt_data_end+0xff003280>
 20043d8:	857ca626 	beq	r16,r21,2003674 <__alt_data_end+0xff003674>
 20043dc:	ac21c83a 	sub	r16,r21,r16
 20043e0:	803bab26 	beq	r16,zero,2003290 <__alt_data_end+0xff003290>
 20043e4:	d8809e17 	ldw	r2,632(sp)
 20043e8:	a8000005 	stb	zero,0(r21)
 20043ec:	ddc09c15 	stw	r23,624(sp)
 20043f0:	10800044 	addi	r2,r2,1
 20043f4:	d8809e15 	stw	r2,632(sp)
 20043f8:	003d6106 	br	2003980 <__alt_data_end+0xff003980>
 20043fc:	010000c4 	movi	r4,3
 2004400:	113e8526 	beq	r2,r4,2003e18 <__alt_data_end+0xff003e18>
 2004404:	01000144 	movi	r4,5
 2004408:	113cee1e 	bne	r2,r4,20037c4 <__alt_data_end+0xff0037c4>
 200440c:	84000044 	addi	r16,r16,1
 2004410:	003e4906 	br	2003d38 <__alt_data_end+0xff003d38>
 2004414:	00800084 	movi	r2,2
 2004418:	30be781e 	bne	r6,r2,2003dfc <__alt_data_end+0xff003dfc>
 200441c:	018000c4 	movi	r6,3
 2004420:	003e4506 	br	2003d38 <__alt_data_end+0xff003d38>
 2004424:	d8c0a017 	ldw	r3,640(sp)
 2004428:	d9c09f17 	ldw	r7,636(sp)
 200442c:	8809883a 	mov	r4,r17
 2004430:	d9400104 	addi	r5,sp,4
 2004434:	000d883a 	mov	r6,zero
 2004438:	a8000005 	stb	zero,0(r21)
 200443c:	183ee83a 	callr	r3
 2004440:	b0c0080c 	andi	r3,r22,32
 2004444:	1800391e 	bne	r3,zero,200452c <__svfscanf_r+0x1390>
 2004448:	b0c0010c 	andi	r3,r22,4
 200444c:	1800ac26 	beq	r3,zero,2004700 <__svfscanf_r+0x1564>
 2004450:	d9409c17 	ldw	r5,624(sp)
 2004454:	28c00017 	ldw	r3,0(r5)
 2004458:	29400104 	addi	r5,r5,4
 200445c:	d9409c15 	stw	r5,624(sp)
 2004460:	1880000d 	sth	r2,0(r3)
 2004464:	d8809e17 	ldw	r2,632(sp)
 2004468:	10800044 	addi	r2,r2,1
 200446c:	d8809e15 	stw	r2,632(sp)
 2004470:	003d4006 	br	2003974 <__alt_data_end+0xff003974>
 2004474:	d8c09c17 	ldw	r3,624(sp)
 2004478:	98800017 	ldw	r2,0(r19)
 200447c:	1d400017 	ldw	r21,0(r3)
 2004480:	1d800104 	addi	r22,r3,4
 2004484:	a821883a 	mov	r16,r21
 2004488:	10c00003 	ldbu	r3,0(r2)
 200448c:	91400017 	ldw	r5,0(r18)
 2004490:	28c7883a 	add	r3,r5,r3
 2004494:	18c00003 	ldbu	r3,0(r3)
 2004498:	18c0020c 	andi	r3,r3,8
 200449c:	18c03fcc 	andi	r3,r3,255
 20044a0:	18c0201c 	xori	r3,r3,128
 20044a4:	18ffe004 	addi	r3,r3,-128
 20044a8:	1800121e 	bne	r3,zero,20044f4 <__svfscanf_r+0x1358>
 20044ac:	98c00117 	ldw	r3,4(r19)
 20044b0:	10800044 	addi	r2,r2,1
 20044b4:	84000044 	addi	r16,r16,1
 20044b8:	18ffffc4 	addi	r3,r3,-1
 20044bc:	98c00115 	stw	r3,4(r19)
 20044c0:	10ffffc3 	ldbu	r3,-1(r2)
 20044c4:	e73fffc4 	addi	fp,fp,-1
 20044c8:	80ffffc5 	stb	r3,-1(r16)
 20044cc:	98800015 	stw	r2,0(r19)
 20044d0:	e0000826 	beq	fp,zero,20044f4 <__svfscanf_r+0x1358>
 20044d4:	98c00117 	ldw	r3,4(r19)
 20044d8:	00ffeb16 	blt	zero,r3,2004488 <__alt_data_end+0xff004488>
 20044dc:	8809883a 	mov	r4,r17
 20044e0:	980b883a 	mov	r5,r19
 20044e4:	2009af00 	call	2009af0 <__srefill_r>
 20044e8:	1000021e 	bne	r2,zero,20044f4 <__svfscanf_r+0x1358>
 20044ec:	98800017 	ldw	r2,0(r19)
 20044f0:	003fe506 	br	2004488 <__alt_data_end+0xff004488>
 20044f4:	d8809e17 	ldw	r2,632(sp)
 20044f8:	856bc83a 	sub	r21,r16,r21
 20044fc:	80000005 	stb	zero,0(r16)
 2004500:	dc009d17 	ldw	r16,628(sp)
 2004504:	10800044 	addi	r2,r2,1
 2004508:	a569883a 	add	r20,r20,r21
 200450c:	d8809e15 	stw	r2,632(sp)
 2004510:	dd809c15 	stw	r22,624(sp)
 2004514:	800d883a 	mov	r6,r16
 2004518:	003b5906 	br	2003280 <__alt_data_end+0xff003280>
 200451c:	dd409b04 	addi	r21,sp,620
 2004520:	003d2506 	br	20039b8 <__alt_data_end+0xff0039b8>
 2004524:	002d883a 	mov	r22,zero
 2004528:	003ba206 	br	20033b4 <__alt_data_end+0xff0033b4>
 200452c:	d9009c17 	ldw	r4,624(sp)
 2004530:	20c00017 	ldw	r3,0(r4)
 2004534:	21000104 	addi	r4,r4,4
 2004538:	d9009c15 	stw	r4,624(sp)
 200453c:	18800015 	stw	r2,0(r3)
 2004540:	003fc806 	br	2004464 <__alt_data_end+0xff004464>
 2004544:	b280008c 	andi	r10,r22,2
 2004548:	50008126 	beq	r10,zero,2004750 <__svfscanf_r+0x15b4>
 200454c:	d8c09c17 	ldw	r3,624(sp)
 2004550:	18800017 	ldw	r2,0(r3)
 2004554:	18c00104 	addi	r3,r3,4
 2004558:	d8c09c15 	stw	r3,624(sp)
 200455c:	15400015 	stw	r21,0(r2)
 2004560:	15c00115 	stw	r23,4(r2)
 2004564:	003cde06 	br	20038e0 <__alt_data_end+0xff0038e0>
 2004568:	00bf1fc4 	movi	r2,-897
 200456c:	b0ac703a 	and	r22,r22,r2
 2004570:	18000226 	beq	r3,zero,200457c <__svfscanf_r+0x13e0>
 2004574:	18ffffc4 	addi	r3,r3,-1
 2004578:	e7000044 	addi	fp,fp,1
 200457c:	84000044 	addi	r16,r16,1
 2004580:	003f3506 	br	2004258 <__alt_data_end+0xff004258>
 2004584:	803cfe1e 	bne	r16,zero,2003980 <__alt_data_end+0xff003980>
 2004588:	003b4106 	br	2003290 <__alt_data_end+0xff003290>
 200458c:	d8c09c17 	ldw	r3,624(sp)
 2004590:	01400044 	movi	r5,1
 2004594:	e00d883a 	mov	r6,fp
 2004598:	19000017 	ldw	r4,0(r3)
 200459c:	980f883a 	mov	r7,r19
 20045a0:	2006a300 	call	2006a30 <fread>
 20045a4:	d9009c17 	ldw	r4,624(sp)
 20045a8:	20c00104 	addi	r3,r4,4
 20045ac:	103c3126 	beq	r2,zero,2003674 <__alt_data_end+0xff003674>
 20045b0:	1529883a 	add	r20,r2,r20
 20045b4:	d8809e17 	ldw	r2,632(sp)
 20045b8:	dc009d17 	ldw	r16,628(sp)
 20045bc:	d8c09c15 	stw	r3,624(sp)
 20045c0:	10800044 	addi	r2,r2,1
 20045c4:	d8809e15 	stw	r2,632(sp)
 20045c8:	800d883a 	mov	r6,r16
 20045cc:	003b2c06 	br	2003280 <__alt_data_end+0xff003280>
 20045d0:	00ffff84 	movi	r3,-2
 20045d4:	10ff7126 	beq	r2,r3,200439c <__alt_data_end+0xff00439c>
 20045d8:	a9000017 	ldw	r4,0(r21)
 20045dc:	20074c00 	call	20074c0 <iswspace>
 20045e0:	103f6926 	beq	r2,zero,2004388 <__alt_data_end+0xff004388>
 20045e4:	803f7426 	beq	r16,zero,20043b8 <__alt_data_end+0xff0043b8>
 20045e8:	843fffc4 	addi	r16,r16,-1
 20045ec:	d9000104 	addi	r4,sp,4
 20045f0:	2405883a 	add	r2,r4,r16
 20045f4:	11400003 	ldbu	r5,0(r2)
 20045f8:	8809883a 	mov	r4,r17
 20045fc:	980d883a 	mov	r6,r19
 2004600:	200c4a00 	call	200c4a0 <_ungetc_r>
 2004604:	803ff81e 	bne	r16,zero,20045e8 <__alt_data_end+0xff0045e8>
 2004608:	003f6b06 	br	20043b8 <__alt_data_end+0xff0043b8>
 200460c:	99000017 	ldw	r4,0(r19)
 2004610:	1705c83a 	sub	r2,r2,fp
 2004614:	8721883a 	add	r16,r16,fp
 2004618:	2707883a 	add	r3,r4,fp
 200461c:	98800115 	stw	r2,4(r19)
 2004620:	98c00015 	stw	r3,0(r19)
 2004624:	003cd606 	br	2003980 <__alt_data_end+0xff003980>
 2004628:	d880a117 	ldw	r2,644(sp)
 200462c:	000d883a 	mov	r6,zero
 2004630:	8809883a 	mov	r4,r17
 2004634:	11400044 	addi	r5,r2,1
 2004638:	01c00284 	movi	r7,10
 200463c:	200b79c0 	call	200b79c <_strtol_r>
 2004640:	d8c0a317 	ldw	r3,652(sp)
 2004644:	10cdc83a 	sub	r6,r2,r3
 2004648:	d900a117 	ldw	r4,644(sp)
 200464c:	d88055c4 	addi	r2,sp,343
 2004650:	20800236 	bltu	r4,r2,200465c <__svfscanf_r+0x14c0>
 2004654:	d9005584 	addi	r4,sp,342
 2004658:	d900a115 	stw	r4,644(sp)
 200465c:	d900a117 	ldw	r4,644(sp)
 2004660:	01408074 	movhi	r5,513
 2004664:	2949e604 	addi	r5,r5,10136
 2004668:	2009ec80 	call	2009ec8 <sprintf>
 200466c:	003c8e06 	br	20038a8 <__alt_data_end+0xff0038a8>
 2004670:	b32c703a 	and	r22,r22,r12
 2004674:	01800044 	movi	r6,1
 2004678:	003daf06 	br	2003d38 <__alt_data_end+0xff003d38>
 200467c:	d8c0a217 	ldw	r3,648(sp)
 2004680:	a8ebc83a 	sub	r21,r21,r3
 2004684:	054dc83a 	sub	r6,zero,r21
 2004688:	a83c8726 	beq	r21,zero,20038a8 <__alt_data_end+0xff0038a8>
 200468c:	ddc0a115 	stw	r23,644(sp)
 2004690:	003fed06 	br	2004648 <__alt_data_end+0xff004648>
 2004694:	85c00083 	ldbu	r23,2(r16)
 2004698:	b5800094 	ori	r22,r22,2
 200469c:	84000084 	addi	r16,r16,2
 20046a0:	003b1e06 	br	200331c <__alt_data_end+0xff00331c>
 20046a4:	b080004c 	andi	r2,r22,1
 20046a8:	10000d1e 	bne	r2,zero,20046e0 <__svfscanf_r+0x1544>
 20046ac:	b580008c 	andi	r22,r22,2
 20046b0:	b0000b26 	beq	r22,zero,20046e0 <__svfscanf_r+0x1544>
 20046b4:	d8c09c17 	ldw	r3,624(sp)
 20046b8:	d9009c17 	ldw	r4,624(sp)
 20046bc:	dc009d17 	ldw	r16,628(sp)
 20046c0:	18800017 	ldw	r2,0(r3)
 20046c4:	a007d7fa 	srai	r3,r20,31
 20046c8:	21000104 	addi	r4,r4,4
 20046cc:	15000015 	stw	r20,0(r2)
 20046d0:	10c00115 	stw	r3,4(r2)
 20046d4:	d9009c15 	stw	r4,624(sp)
 20046d8:	800d883a 	mov	r6,r16
 20046dc:	003ae806 	br	2003280 <__alt_data_end+0xff003280>
 20046e0:	d9409c17 	ldw	r5,624(sp)
 20046e4:	dc009d17 	ldw	r16,628(sp)
 20046e8:	28800017 	ldw	r2,0(r5)
 20046ec:	29400104 	addi	r5,r5,4
 20046f0:	d9409c15 	stw	r5,624(sp)
 20046f4:	15000015 	stw	r20,0(r2)
 20046f8:	800d883a 	mov	r6,r16
 20046fc:	003ae006 	br	2003280 <__alt_data_end+0xff003280>
 2004700:	b0c0004c 	andi	r3,r22,1
 2004704:	183f891e 	bne	r3,zero,200452c <__alt_data_end+0xff00452c>
 2004708:	b580008c 	andi	r22,r22,2
 200470c:	b03f8726 	beq	r22,zero,200452c <__alt_data_end+0xff00452c>
 2004710:	d940a017 	ldw	r5,640(sp)
 2004714:	00808074 	movhi	r2,513
 2004718:	10af5504 	addi	r2,r2,-17068
 200471c:	8809883a 	mov	r4,r17
 2004720:	28802626 	beq	r5,r2,20047bc <__svfscanf_r+0x1620>
 2004724:	d9c09f17 	ldw	r7,636(sp)
 2004728:	d9400104 	addi	r5,sp,4
 200472c:	000d883a 	mov	r6,zero
 2004730:	200ba240 	call	200ba24 <_strtoll_r>
 2004734:	d9409c17 	ldw	r5,624(sp)
 2004738:	29000017 	ldw	r4,0(r5)
 200473c:	29400104 	addi	r5,r5,4
 2004740:	d9409c15 	stw	r5,624(sp)
 2004744:	20800015 	stw	r2,0(r4)
 2004748:	20c00115 	stw	r3,4(r4)
 200474c:	003f4506 	br	2004464 <__alt_data_end+0xff004464>
 2004750:	d8809c17 	ldw	r2,624(sp)
 2004754:	a809883a 	mov	r4,r21
 2004758:	180b883a 	mov	r5,r3
 200475c:	14000104 	addi	r16,r2,4
 2004760:	15800017 	ldw	r22,0(r2)
 2004764:	2009d140 	call	2009d14 <__isnand>
 2004768:	1000311e 	bne	r2,zero,2004830 <__svfscanf_r+0x1694>
 200476c:	a809883a 	mov	r4,r21
 2004770:	b80b883a 	mov	r5,r23
 2004774:	200f20c0 	call	200f20c <__truncdfsf2>
 2004778:	b0800015 	stw	r2,0(r22)
 200477c:	dc009c15 	stw	r16,624(sp)
 2004780:	003c5706 	br	20038e0 <__alt_data_end+0xff0038e0>
 2004784:	0021883a 	mov	r16,zero
 2004788:	003f0406 	br	200439c <__alt_data_end+0xff00439c>
 200478c:	d9400104 	addi	r5,sp,4
 2004790:	9821883a 	mov	r16,r19
 2004794:	2dfabe2e 	bgeu	r5,r23,2003290 <__alt_data_end+0xff003290>
 2004798:	bcbfffc4 	addi	r18,r23,-1
 200479c:	dcc000c4 	addi	r19,sp,3
 20047a0:	91400007 	ldb	r5,0(r18)
 20047a4:	8809883a 	mov	r4,r17
 20047a8:	94bfffc4 	addi	r18,r18,-1
 20047ac:	800d883a 	mov	r6,r16
 20047b0:	200c4a00 	call	200c4a0 <_ungetc_r>
 20047b4:	94fffa1e 	bne	r18,r19,20047a0 <__alt_data_end+0xff0047a0>
 20047b8:	003ab506 	br	2003290 <__alt_data_end+0xff003290>
 20047bc:	d9c09f17 	ldw	r7,636(sp)
 20047c0:	d9400104 	addi	r5,sp,4
 20047c4:	000d883a 	mov	r6,zero
 20047c8:	200c01c0 	call	200c01c <_strtoull_r>
 20047cc:	003fd906 	br	2004734 <__alt_data_end+0xff004734>
 20047d0:	d9000104 	addi	r4,sp,4
 20047d4:	9821883a 	mov	r16,r19
 20047d8:	25faad2e 	bgeu	r4,r23,2003290 <__alt_data_end+0xff003290>
 20047dc:	bcbfffc4 	addi	r18,r23,-1
 20047e0:	dcc000c4 	addi	r19,sp,3
 20047e4:	91400007 	ldb	r5,0(r18)
 20047e8:	8809883a 	mov	r4,r17
 20047ec:	94bfffc4 	addi	r18,r18,-1
 20047f0:	800d883a 	mov	r6,r16
 20047f4:	200c4a00 	call	200c4a0 <_ungetc_r>
 20047f8:	94fffa1e 	bne	r18,r19,20047e4 <__alt_data_end+0xff0047e4>
 20047fc:	003aa406 	br	2003290 <__alt_data_end+0xff003290>
 2004800:	d8c00104 	addi	r3,sp,4
 2004804:	9821883a 	mov	r16,r19
 2004808:	1dfaa12e 	bgeu	r3,r23,2003290 <__alt_data_end+0xff003290>
 200480c:	bcbfffc4 	addi	r18,r23,-1
 2004810:	dcc000c4 	addi	r19,sp,3
 2004814:	91400007 	ldb	r5,0(r18)
 2004818:	8809883a 	mov	r4,r17
 200481c:	94bfffc4 	addi	r18,r18,-1
 2004820:	800d883a 	mov	r6,r16
 2004824:	200c4a00 	call	200c4a0 <_ungetc_r>
 2004828:	94fffa1e 	bne	r18,r19,2004814 <__alt_data_end+0xff004814>
 200482c:	003a9806 	br	2003290 <__alt_data_end+0xff003290>
 2004830:	0009883a 	mov	r4,zero
 2004834:	2009e680 	call	2009e68 <nanf>
 2004838:	b0800015 	stw	r2,0(r22)
 200483c:	dc009c15 	stw	r16,624(sp)
 2004840:	003c2706 	br	20038e0 <__alt_data_end+0xff0038e0>

02004844 <_vfscanf_r>:
 2004844:	defffb04 	addi	sp,sp,-20
 2004848:	dc000315 	stw	r16,12(sp)
 200484c:	dfc00415 	stw	ra,16(sp)
 2004850:	2021883a 	mov	r16,r4
 2004854:	20000926 	beq	r4,zero,200487c <_vfscanf_r+0x38>
 2004858:	20800e17 	ldw	r2,56(r4)
 200485c:	1000071e 	bne	r2,zero,200487c <_vfscanf_r+0x38>
 2004860:	d9400015 	stw	r5,0(sp)
 2004864:	d9800115 	stw	r6,4(sp)
 2004868:	d9c00215 	stw	r7,8(sp)
 200486c:	20065ac0 	call	20065ac <__sinit>
 2004870:	d9c00217 	ldw	r7,8(sp)
 2004874:	d9800117 	ldw	r6,4(sp)
 2004878:	d9400017 	ldw	r5,0(sp)
 200487c:	8009883a 	mov	r4,r16
 2004880:	dfc00417 	ldw	ra,16(sp)
 2004884:	dc000317 	ldw	r16,12(sp)
 2004888:	dec00504 	addi	sp,sp,20
 200488c:	200319c1 	jmpi	200319c <__svfscanf_r>

02004890 <__svfscanf>:
 2004890:	00808074 	movhi	r2,513
 2004894:	1091e904 	addi	r2,r2,18340
 2004898:	2007883a 	mov	r3,r4
 200489c:	11000017 	ldw	r4,0(r2)
 20048a0:	2805883a 	mov	r2,r5
 20048a4:	300f883a 	mov	r7,r6
 20048a8:	180b883a 	mov	r5,r3
 20048ac:	100d883a 	mov	r6,r2
 20048b0:	200319c1 	jmpi	200319c <__svfscanf_r>

020048b4 <vfscanf>:
 20048b4:	defffb04 	addi	sp,sp,-20
 20048b8:	dc000115 	stw	r16,4(sp)
 20048bc:	04008074 	movhi	r16,513
 20048c0:	8411e904 	addi	r16,r16,18340
 20048c4:	80800017 	ldw	r2,0(r16)
 20048c8:	dc800315 	stw	r18,12(sp)
 20048cc:	dc400215 	stw	r17,8(sp)
 20048d0:	dfc00415 	stw	ra,16(sp)
 20048d4:	2025883a 	mov	r18,r4
 20048d8:	2823883a 	mov	r17,r5
 20048dc:	300f883a 	mov	r7,r6
 20048e0:	10000726 	beq	r2,zero,2004900 <vfscanf+0x4c>
 20048e4:	10c00e17 	ldw	r3,56(r2)
 20048e8:	1800051e 	bne	r3,zero,2004900 <vfscanf+0x4c>
 20048ec:	1009883a 	mov	r4,r2
 20048f0:	d9800015 	stw	r6,0(sp)
 20048f4:	20065ac0 	call	20065ac <__sinit>
 20048f8:	80800017 	ldw	r2,0(r16)
 20048fc:	d9c00017 	ldw	r7,0(sp)
 2004900:	1009883a 	mov	r4,r2
 2004904:	900b883a 	mov	r5,r18
 2004908:	880d883a 	mov	r6,r17
 200490c:	dfc00417 	ldw	ra,16(sp)
 2004910:	dc800317 	ldw	r18,12(sp)
 2004914:	dc400217 	ldw	r17,8(sp)
 2004918:	dc000117 	ldw	r16,4(sp)
 200491c:	dec00504 	addi	sp,sp,20
 2004920:	200319c1 	jmpi	200319c <__svfscanf_r>

02004924 <__swsetup_r>:
 2004924:	00808074 	movhi	r2,513
 2004928:	1091e904 	addi	r2,r2,18340
 200492c:	10800017 	ldw	r2,0(r2)
 2004930:	defffd04 	addi	sp,sp,-12
 2004934:	dc400115 	stw	r17,4(sp)
 2004938:	dc000015 	stw	r16,0(sp)
 200493c:	dfc00215 	stw	ra,8(sp)
 2004940:	2023883a 	mov	r17,r4
 2004944:	2821883a 	mov	r16,r5
 2004948:	10000226 	beq	r2,zero,2004954 <__swsetup_r+0x30>
 200494c:	10c00e17 	ldw	r3,56(r2)
 2004950:	18003d26 	beq	r3,zero,2004a48 <__swsetup_r+0x124>
 2004954:	8080030b 	ldhu	r2,12(r16)
 2004958:	10c0020c 	andi	r3,r2,8
 200495c:	18ffffcc 	andi	r3,r3,65535
 2004960:	18e0001c 	xori	r3,r3,32768
 2004964:	18e00004 	addi	r3,r3,-32768
 2004968:	18001226 	beq	r3,zero,20049b4 <__swsetup_r+0x90>
 200496c:	80c00417 	ldw	r3,16(r16)
 2004970:	18001f26 	beq	r3,zero,20049f0 <__swsetup_r+0xcc>
 2004974:	1100004c 	andi	r4,r2,1
 2004978:	2000261e 	bne	r4,zero,2004a14 <__swsetup_r+0xf0>
 200497c:	1080008c 	andi	r2,r2,2
 2004980:	10bfffcc 	andi	r2,r2,65535
 2004984:	10a0001c 	xori	r2,r2,32768
 2004988:	10a00004 	addi	r2,r2,-32768
 200498c:	1000311e 	bne	r2,zero,2004a54 <__swsetup_r+0x130>
 2004990:	80800517 	ldw	r2,20(r16)
 2004994:	80800215 	stw	r2,8(r16)
 2004998:	18002326 	beq	r3,zero,2004a28 <__swsetup_r+0x104>
 200499c:	0005883a 	mov	r2,zero
 20049a0:	dfc00217 	ldw	ra,8(sp)
 20049a4:	dc400117 	ldw	r17,4(sp)
 20049a8:	dc000017 	ldw	r16,0(sp)
 20049ac:	dec00304 	addi	sp,sp,12
 20049b0:	f800283a 	ret
 20049b4:	10c0040c 	andi	r3,r2,16
 20049b8:	18ffffcc 	andi	r3,r3,65535
 20049bc:	18e0001c 	xori	r3,r3,32768
 20049c0:	18e00004 	addi	r3,r3,-32768
 20049c4:	18001e26 	beq	r3,zero,2004a40 <__swsetup_r+0x11c>
 20049c8:	10c0010c 	andi	r3,r2,4
 20049cc:	18ffffcc 	andi	r3,r3,65535
 20049d0:	18e0001c 	xori	r3,r3,32768
 20049d4:	18e00004 	addi	r3,r3,-32768
 20049d8:	1800211e 	bne	r3,zero,2004a60 <__swsetup_r+0x13c>
 20049dc:	80c00417 	ldw	r3,16(r16)
 20049e0:	11400214 	ori	r5,r2,8
 20049e4:	8140030d 	sth	r5,12(r16)
 20049e8:	2805883a 	mov	r2,r5
 20049ec:	183fe11e 	bne	r3,zero,2004974 <__alt_data_end+0xff004974>
 20049f0:	1140a00c 	andi	r5,r2,640
 20049f4:	01008004 	movi	r4,512
 20049f8:	293fde26 	beq	r5,r4,2004974 <__alt_data_end+0xff004974>
 20049fc:	8809883a 	mov	r4,r17
 2004a00:	800b883a 	mov	r5,r16
 2004a04:	20075d40 	call	20075d4 <__smakebuf_r>
 2004a08:	8080030b 	ldhu	r2,12(r16)
 2004a0c:	80c00417 	ldw	r3,16(r16)
 2004a10:	003fd806 	br	2004974 <__alt_data_end+0xff004974>
 2004a14:	80800517 	ldw	r2,20(r16)
 2004a18:	80000215 	stw	zero,8(r16)
 2004a1c:	0085c83a 	sub	r2,zero,r2
 2004a20:	80800615 	stw	r2,24(r16)
 2004a24:	183fdd1e 	bne	r3,zero,200499c <__alt_data_end+0xff00499c>
 2004a28:	8080030b 	ldhu	r2,12(r16)
 2004a2c:	1080200c 	andi	r2,r2,128
 2004a30:	10bfffcc 	andi	r2,r2,65535
 2004a34:	10a0001c 	xori	r2,r2,32768
 2004a38:	10a00004 	addi	r2,r2,-32768
 2004a3c:	103fd826 	beq	r2,zero,20049a0 <__alt_data_end+0xff0049a0>
 2004a40:	00bfffc4 	movi	r2,-1
 2004a44:	003fd606 	br	20049a0 <__alt_data_end+0xff0049a0>
 2004a48:	1009883a 	mov	r4,r2
 2004a4c:	20065ac0 	call	20065ac <__sinit>
 2004a50:	003fc006 	br	2004954 <__alt_data_end+0xff004954>
 2004a54:	0005883a 	mov	r2,zero
 2004a58:	80800215 	stw	r2,8(r16)
 2004a5c:	003fce06 	br	2004998 <__alt_data_end+0xff004998>
 2004a60:	81400c17 	ldw	r5,48(r16)
 2004a64:	28000626 	beq	r5,zero,2004a80 <__swsetup_r+0x15c>
 2004a68:	80c01004 	addi	r3,r16,64
 2004a6c:	28c00326 	beq	r5,r3,2004a7c <__swsetup_r+0x158>
 2004a70:	8809883a 	mov	r4,r17
 2004a74:	2006bac0 	call	2006bac <_free_r>
 2004a78:	8080030b 	ldhu	r2,12(r16)
 2004a7c:	80000c15 	stw	zero,48(r16)
 2004a80:	80c00417 	ldw	r3,16(r16)
 2004a84:	013ff6c4 	movi	r4,-37
 2004a88:	2084703a 	and	r2,r4,r2
 2004a8c:	80000115 	stw	zero,4(r16)
 2004a90:	80c00015 	stw	r3,0(r16)
 2004a94:	003fd206 	br	20049e0 <__alt_data_end+0xff0049e0>

02004a98 <quorem>:
 2004a98:	defff204 	addi	sp,sp,-56
 2004a9c:	dd000815 	stw	r20,32(sp)
 2004aa0:	20800417 	ldw	r2,16(r4)
 2004aa4:	2d000417 	ldw	r20,16(r5)
 2004aa8:	dcc00715 	stw	r19,28(sp)
 2004aac:	dfc00d15 	stw	ra,52(sp)
 2004ab0:	df000c15 	stw	fp,48(sp)
 2004ab4:	ddc00b15 	stw	r23,44(sp)
 2004ab8:	dd800a15 	stw	r22,40(sp)
 2004abc:	dd400915 	stw	r21,36(sp)
 2004ac0:	dc800615 	stw	r18,24(sp)
 2004ac4:	dc400515 	stw	r17,20(sp)
 2004ac8:	dc000415 	stw	r16,16(sp)
 2004acc:	d9400015 	stw	r5,0(sp)
 2004ad0:	2027883a 	mov	r19,r4
 2004ad4:	15007d16 	blt	r2,r20,2004ccc <quorem+0x234>
 2004ad8:	a0800104 	addi	r2,r20,4
 2004adc:	1085883a 	add	r2,r2,r2
 2004ae0:	1085883a 	add	r2,r2,r2
 2004ae4:	28ad883a 	add	r22,r5,r2
 2004ae8:	2085883a 	add	r2,r4,r2
 2004aec:	10800017 	ldw	r2,0(r2)
 2004af0:	b1400017 	ldw	r5,0(r22)
 2004af4:	a53fffc4 	addi	r20,r20,-1
 2004af8:	1009883a 	mov	r4,r2
 2004afc:	29400044 	addi	r5,r5,1
 2004b00:	d8800115 	stw	r2,4(sp)
 2004b04:	20010980 	call	2001098 <__udivsi3>
 2004b08:	1025883a 	mov	r18,r2
 2004b0c:	d8800017 	ldw	r2,0(sp)
 2004b10:	9f000504 	addi	fp,r19,20
 2004b14:	14000504 	addi	r16,r2,20
 2004b18:	90003626 	beq	r18,zero,2004bf4 <quorem+0x15c>
 2004b1c:	802b883a 	mov	r21,r16
 2004b20:	e023883a 	mov	r17,fp
 2004b24:	0007883a 	mov	r3,zero
 2004b28:	002f883a 	mov	r23,zero
 2004b2c:	a9800017 	ldw	r6,0(r21)
 2004b30:	900b883a 	mov	r5,r18
 2004b34:	d8c00315 	stw	r3,12(sp)
 2004b38:	313fffcc 	andi	r4,r6,65535
 2004b3c:	d9800215 	stw	r6,8(sp)
 2004b40:	20010a80 	call	20010a8 <__mulsi3>
 2004b44:	d9800217 	ldw	r6,8(sp)
 2004b48:	d8c00317 	ldw	r3,12(sp)
 2004b4c:	900b883a 	mov	r5,r18
 2004b50:	3008d43a 	srli	r4,r6,16
 2004b54:	1887883a 	add	r3,r3,r2
 2004b58:	d8c00315 	stw	r3,12(sp)
 2004b5c:	20010a80 	call	20010a8 <__mulsi3>
 2004b60:	89400017 	ldw	r5,0(r17)
 2004b64:	d8c00317 	ldw	r3,12(sp)
 2004b68:	ad400104 	addi	r21,r21,4
 2004b6c:	293fffcc 	andi	r4,r5,65535
 2004b70:	1810d43a 	srli	r8,r3,16
 2004b74:	25c9883a 	add	r4,r4,r23
 2004b78:	18ffffcc 	andi	r3,r3,65535
 2004b7c:	20c9c83a 	sub	r4,r4,r3
 2004b80:	280cd43a 	srli	r6,r5,16
 2004b84:	4085883a 	add	r2,r8,r2
 2004b88:	2007d43a 	srai	r3,r4,16
 2004b8c:	117fffcc 	andi	r5,r2,65535
 2004b90:	314bc83a 	sub	r5,r6,r5
 2004b94:	28cb883a 	add	r5,r5,r3
 2004b98:	8940008d 	sth	r5,2(r17)
 2004b9c:	8900000d 	sth	r4,0(r17)
 2004ba0:	1006d43a 	srli	r3,r2,16
 2004ba4:	282fd43a 	srai	r23,r5,16
 2004ba8:	8c400104 	addi	r17,r17,4
 2004bac:	b57fdf2e 	bgeu	r22,r21,2004b2c <__alt_data_end+0xff004b2c>
 2004bb0:	d8c00117 	ldw	r3,4(sp)
 2004bb4:	18000f1e 	bne	r3,zero,2004bf4 <quorem+0x15c>
 2004bb8:	a0800144 	addi	r2,r20,5
 2004bbc:	1085883a 	add	r2,r2,r2
 2004bc0:	1085883a 	add	r2,r2,r2
 2004bc4:	9887883a 	add	r3,r19,r2
 2004bc8:	18bfff04 	addi	r2,r3,-4
 2004bcc:	e080082e 	bgeu	fp,r2,2004bf0 <quorem+0x158>
 2004bd0:	18ffff17 	ldw	r3,-4(r3)
 2004bd4:	18000326 	beq	r3,zero,2004be4 <quorem+0x14c>
 2004bd8:	00000506 	br	2004bf0 <quorem+0x158>
 2004bdc:	10c00017 	ldw	r3,0(r2)
 2004be0:	1800031e 	bne	r3,zero,2004bf0 <quorem+0x158>
 2004be4:	10bfff04 	addi	r2,r2,-4
 2004be8:	a53fffc4 	addi	r20,r20,-1
 2004bec:	e0bffb36 	bltu	fp,r2,2004bdc <__alt_data_end+0xff004bdc>
 2004bf0:	9d000415 	stw	r20,16(r19)
 2004bf4:	d9400017 	ldw	r5,0(sp)
 2004bf8:	9809883a 	mov	r4,r19
 2004bfc:	2008dd40 	call	2008dd4 <__mcmp>
 2004c00:	10002516 	blt	r2,zero,2004c98 <quorem+0x200>
 2004c04:	94800044 	addi	r18,r18,1
 2004c08:	e007883a 	mov	r3,fp
 2004c0c:	000d883a 	mov	r6,zero
 2004c10:	18800017 	ldw	r2,0(r3)
 2004c14:	82000017 	ldw	r8,0(r16)
 2004c18:	84000104 	addi	r16,r16,4
 2004c1c:	11ffffcc 	andi	r7,r2,65535
 2004c20:	413fffcc 	andi	r4,r8,65535
 2004c24:	398d883a 	add	r6,r7,r6
 2004c28:	310fc83a 	sub	r7,r6,r4
 2004c2c:	4010d43a 	srli	r8,r8,16
 2004c30:	100cd43a 	srli	r6,r2,16
 2004c34:	3809d43a 	srai	r4,r7,16
 2004c38:	19c0000d 	sth	r7,0(r3)
 2004c3c:	320dc83a 	sub	r6,r6,r8
 2004c40:	310d883a 	add	r6,r6,r4
 2004c44:	1980008d 	sth	r6,2(r3)
 2004c48:	300dd43a 	srai	r6,r6,16
 2004c4c:	18c00104 	addi	r3,r3,4
 2004c50:	b43fef2e 	bgeu	r22,r16,2004c10 <__alt_data_end+0xff004c10>
 2004c54:	a0800144 	addi	r2,r20,5
 2004c58:	1085883a 	add	r2,r2,r2
 2004c5c:	1085883a 	add	r2,r2,r2
 2004c60:	9885883a 	add	r2,r19,r2
 2004c64:	10c00017 	ldw	r3,0(r2)
 2004c68:	18000b1e 	bne	r3,zero,2004c98 <quorem+0x200>
 2004c6c:	10ffff04 	addi	r3,r2,-4
 2004c70:	e0c0082e 	bgeu	fp,r3,2004c94 <quorem+0x1fc>
 2004c74:	10bfff17 	ldw	r2,-4(r2)
 2004c78:	10000326 	beq	r2,zero,2004c88 <quorem+0x1f0>
 2004c7c:	00000506 	br	2004c94 <quorem+0x1fc>
 2004c80:	18800017 	ldw	r2,0(r3)
 2004c84:	1000031e 	bne	r2,zero,2004c94 <quorem+0x1fc>
 2004c88:	18ffff04 	addi	r3,r3,-4
 2004c8c:	a53fffc4 	addi	r20,r20,-1
 2004c90:	e0fffb36 	bltu	fp,r3,2004c80 <__alt_data_end+0xff004c80>
 2004c94:	9d000415 	stw	r20,16(r19)
 2004c98:	9005883a 	mov	r2,r18
 2004c9c:	dfc00d17 	ldw	ra,52(sp)
 2004ca0:	df000c17 	ldw	fp,48(sp)
 2004ca4:	ddc00b17 	ldw	r23,44(sp)
 2004ca8:	dd800a17 	ldw	r22,40(sp)
 2004cac:	dd400917 	ldw	r21,36(sp)
 2004cb0:	dd000817 	ldw	r20,32(sp)
 2004cb4:	dcc00717 	ldw	r19,28(sp)
 2004cb8:	dc800617 	ldw	r18,24(sp)
 2004cbc:	dc400517 	ldw	r17,20(sp)
 2004cc0:	dc000417 	ldw	r16,16(sp)
 2004cc4:	dec00e04 	addi	sp,sp,56
 2004cc8:	f800283a 	ret
 2004ccc:	0005883a 	mov	r2,zero
 2004cd0:	003ff206 	br	2004c9c <__alt_data_end+0xff004c9c>

02004cd4 <_dtoa_r>:
 2004cd4:	20801017 	ldw	r2,64(r4)
 2004cd8:	deffdf04 	addi	sp,sp,-132
 2004cdc:	dcc01a15 	stw	r19,104(sp)
 2004ce0:	dc801915 	stw	r18,100(sp)
 2004ce4:	dc401815 	stw	r17,96(sp)
 2004ce8:	dc001715 	stw	r16,92(sp)
 2004cec:	dfc02015 	stw	ra,128(sp)
 2004cf0:	df001f15 	stw	fp,124(sp)
 2004cf4:	ddc01e15 	stw	r23,120(sp)
 2004cf8:	dd801d15 	stw	r22,116(sp)
 2004cfc:	dd401c15 	stw	r21,112(sp)
 2004d00:	dd001b15 	stw	r20,108(sp)
 2004d04:	d9400315 	stw	r5,12(sp)
 2004d08:	d9c00415 	stw	r7,16(sp)
 2004d0c:	2021883a 	mov	r16,r4
 2004d10:	3025883a 	mov	r18,r6
 2004d14:	dcc02317 	ldw	r19,140(sp)
 2004d18:	3023883a 	mov	r17,r6
 2004d1c:	10000826 	beq	r2,zero,2004d40 <_dtoa_r+0x6c>
 2004d20:	20c01117 	ldw	r3,68(r4)
 2004d24:	01800044 	movi	r6,1
 2004d28:	100b883a 	mov	r5,r2
 2004d2c:	30cc983a 	sll	r6,r6,r3
 2004d30:	10c00115 	stw	r3,4(r2)
 2004d34:	11800215 	stw	r6,8(r2)
 2004d38:	20085300 	call	2008530 <_Bfree>
 2004d3c:	80001015 	stw	zero,64(r16)
 2004d40:	90002f16 	blt	r18,zero,2004e00 <_dtoa_r+0x12c>
 2004d44:	98000015 	stw	zero,0(r19)
 2004d48:	90dffc2c 	andhi	r3,r18,32752
 2004d4c:	009ffc34 	movhi	r2,32752
 2004d50:	18801c26 	beq	r3,r2,2004dc4 <_dtoa_r+0xf0>
 2004d54:	d9000317 	ldw	r4,12(sp)
 2004d58:	880b883a 	mov	r5,r17
 2004d5c:	000d883a 	mov	r6,zero
 2004d60:	000f883a 	mov	r7,zero
 2004d64:	200ee980 	call	200ee98 <__nedf2>
 2004d68:	10002c1e 	bne	r2,zero,2004e1c <_dtoa_r+0x148>
 2004d6c:	d9002217 	ldw	r4,136(sp)
 2004d70:	d9c02417 	ldw	r7,144(sp)
 2004d74:	00800044 	movi	r2,1
 2004d78:	20800015 	stw	r2,0(r4)
 2004d7c:	38019426 	beq	r7,zero,20053d0 <_dtoa_r+0x6fc>
 2004d80:	00808074 	movhi	r2,513
 2004d84:	1089dd44 	addi	r2,r2,10101
 2004d88:	38800015 	stw	r2,0(r7)
 2004d8c:	15ffffc4 	addi	r23,r2,-1
 2004d90:	b805883a 	mov	r2,r23
 2004d94:	dfc02017 	ldw	ra,128(sp)
 2004d98:	df001f17 	ldw	fp,124(sp)
 2004d9c:	ddc01e17 	ldw	r23,120(sp)
 2004da0:	dd801d17 	ldw	r22,116(sp)
 2004da4:	dd401c17 	ldw	r21,112(sp)
 2004da8:	dd001b17 	ldw	r20,108(sp)
 2004dac:	dcc01a17 	ldw	r19,104(sp)
 2004db0:	dc801917 	ldw	r18,100(sp)
 2004db4:	dc401817 	ldw	r17,96(sp)
 2004db8:	dc001717 	ldw	r16,92(sp)
 2004dbc:	dec02104 	addi	sp,sp,132
 2004dc0:	f800283a 	ret
 2004dc4:	d8c02217 	ldw	r3,136(sp)
 2004dc8:	d9000317 	ldw	r4,12(sp)
 2004dcc:	0089c3c4 	movi	r2,9999
 2004dd0:	18800015 	stw	r2,0(r3)
 2004dd4:	20016c26 	beq	r4,zero,2005388 <_dtoa_r+0x6b4>
 2004dd8:	05c08074 	movhi	r23,513
 2004ddc:	bdca9404 	addi	r23,r23,10832
 2004de0:	d9c02417 	ldw	r7,144(sp)
 2004de4:	383fea26 	beq	r7,zero,2004d90 <__alt_data_end+0xff004d90>
 2004de8:	b88000c7 	ldb	r2,3(r23)
 2004dec:	10016d1e 	bne	r2,zero,20053a4 <_dtoa_r+0x6d0>
 2004df0:	b88000c4 	addi	r2,r23,3
 2004df4:	d8c02417 	ldw	r3,144(sp)
 2004df8:	18800015 	stw	r2,0(r3)
 2004dfc:	003fe406 	br	2004d90 <__alt_data_end+0xff004d90>
 2004e00:	04600034 	movhi	r17,32768
 2004e04:	8c7fffc4 	addi	r17,r17,-1
 2004e08:	9462703a 	and	r17,r18,r17
 2004e0c:	00800044 	movi	r2,1
 2004e10:	98800015 	stw	r2,0(r19)
 2004e14:	8825883a 	mov	r18,r17
 2004e18:	003fcb06 	br	2004d48 <__alt_data_end+0xff004d48>
 2004e1c:	d9400317 	ldw	r5,12(sp)
 2004e20:	9028d53a 	srli	r20,r18,20
 2004e24:	d8800204 	addi	r2,sp,8
 2004e28:	d8800015 	stw	r2,0(sp)
 2004e2c:	8009883a 	mov	r4,r16
 2004e30:	880d883a 	mov	r6,r17
 2004e34:	d9c00104 	addi	r7,sp,4
 2004e38:	200917c0 	call	200917c <__d2b>
 2004e3c:	a501ffcc 	andi	r20,r20,2047
 2004e40:	1039883a 	mov	fp,r2
 2004e44:	a001591e 	bne	r20,zero,20053ac <_dtoa_r+0x6d8>
 2004e48:	dd400217 	ldw	r21,8(sp)
 2004e4c:	dd000117 	ldw	r20,4(sp)
 2004e50:	00befbc4 	movi	r2,-1041
 2004e54:	ad29883a 	add	r20,r21,r20
 2004e58:	a082d216 	blt	r20,r2,20059a4 <_dtoa_r+0xcd0>
 2004e5c:	d8c00317 	ldw	r3,12(sp)
 2004e60:	013f0384 	movi	r4,-1010
 2004e64:	2509c83a 	sub	r4,r4,r20
 2004e68:	a0810484 	addi	r2,r20,1042
 2004e6c:	9124983a 	sll	r18,r18,r4
 2004e70:	1884d83a 	srl	r2,r3,r2
 2004e74:	9088b03a 	or	r4,r18,r2
 2004e78:	200f26c0 	call	200f26c <__floatunsidf>
 2004e7c:	1009883a 	mov	r4,r2
 2004e80:	017f8434 	movhi	r5,65040
 2004e84:	00800044 	movi	r2,1
 2004e88:	194b883a 	add	r5,r3,r5
 2004e8c:	a53fffc4 	addi	r20,r20,-1
 2004e90:	d8800f15 	stw	r2,60(sp)
 2004e94:	000d883a 	mov	r6,zero
 2004e98:	01cffe34 	movhi	r7,16376
 2004e9c:	200e9440 	call	200e944 <__subdf3>
 2004ea0:	1009883a 	mov	r4,r2
 2004ea4:	180b883a 	mov	r5,r3
 2004ea8:	0198dbf4 	movhi	r6,25455
 2004eac:	3190d844 	addi	r6,r6,17249
 2004eb0:	01cff4f4 	movhi	r7,16339
 2004eb4:	39e1e9c4 	addi	r7,r7,-30809
 2004eb8:	200e9a40 	call	200e9a4 <__muldf3>
 2004ebc:	180b883a 	mov	r5,r3
 2004ec0:	01a2d874 	movhi	r6,35681
 2004ec4:	31b22cc4 	addi	r6,r6,-14157
 2004ec8:	01cff1f4 	movhi	r7,16327
 2004ecc:	39e28a04 	addi	r7,r7,-30168
 2004ed0:	1009883a 	mov	r4,r2
 2004ed4:	200e8f00 	call	200e8f0 <__adddf3>
 2004ed8:	a009883a 	mov	r4,r20
 2004edc:	1027883a 	mov	r19,r2
 2004ee0:	1825883a 	mov	r18,r3
 2004ee4:	200f0740 	call	200f074 <__floatsidf>
 2004ee8:	1009883a 	mov	r4,r2
 2004eec:	180b883a 	mov	r5,r3
 2004ef0:	019427f4 	movhi	r6,20639
 2004ef4:	319e7ec4 	addi	r6,r6,31227
 2004ef8:	01cff4f4 	movhi	r7,16339
 2004efc:	39d104c4 	addi	r7,r7,17427
 2004f00:	200e9a40 	call	200e9a4 <__muldf3>
 2004f04:	9809883a 	mov	r4,r19
 2004f08:	900b883a 	mov	r5,r18
 2004f0c:	100d883a 	mov	r6,r2
 2004f10:	180f883a 	mov	r7,r3
 2004f14:	200e8f00 	call	200e8f0 <__adddf3>
 2004f18:	1009883a 	mov	r4,r2
 2004f1c:	180b883a 	mov	r5,r3
 2004f20:	1027883a 	mov	r19,r2
 2004f24:	1825883a 	mov	r18,r3
 2004f28:	200f1480 	call	200f148 <__fixdfsi>
 2004f2c:	9809883a 	mov	r4,r19
 2004f30:	900b883a 	mov	r5,r18
 2004f34:	000d883a 	mov	r6,zero
 2004f38:	000f883a 	mov	r7,zero
 2004f3c:	d8800615 	stw	r2,24(sp)
 2004f40:	200efbc0 	call	200efbc <__ltdf2>
 2004f44:	10027e16 	blt	r2,zero,2005940 <_dtoa_r+0xc6c>
 2004f48:	d8c00617 	ldw	r3,24(sp)
 2004f4c:	00800584 	movi	r2,22
 2004f50:	10c26c36 	bltu	r2,r3,2005904 <_dtoa_r+0xc30>
 2004f54:	180490fa 	slli	r2,r3,3
 2004f58:	00c08074 	movhi	r3,513
 2004f5c:	18caba04 	addi	r3,r3,10984
 2004f60:	d9800317 	ldw	r6,12(sp)
 2004f64:	1885883a 	add	r2,r3,r2
 2004f68:	11000017 	ldw	r4,0(r2)
 2004f6c:	11400117 	ldw	r5,4(r2)
 2004f70:	880f883a 	mov	r7,r17
 2004f74:	200eef40 	call	200eef4 <__gtdf2>
 2004f78:	00828f0e 	bge	zero,r2,20059b8 <_dtoa_r+0xce4>
 2004f7c:	d8800617 	ldw	r2,24(sp)
 2004f80:	d8000d15 	stw	zero,52(sp)
 2004f84:	10bfffc4 	addi	r2,r2,-1
 2004f88:	d8800615 	stw	r2,24(sp)
 2004f8c:	ad29c83a 	sub	r20,r21,r20
 2004f90:	a53fffc4 	addi	r20,r20,-1
 2004f94:	a0026616 	blt	r20,zero,2005930 <_dtoa_r+0xc5c>
 2004f98:	dd000715 	stw	r20,28(sp)
 2004f9c:	d8000815 	stw	zero,32(sp)
 2004fa0:	d8800617 	ldw	r2,24(sp)
 2004fa4:	10025a16 	blt	r2,zero,2005910 <_dtoa_r+0xc3c>
